C51 COMPILER V9.51   MAIN                                                                  04/25/2019 18:56:08 PAGE 1   


C51 COMPILER V9.51, COMPILATION OF MODULE MAIN
OBJECT MODULE PLACED IN .\DP8051\DP8051_Keil_951\Debug\main.obj
COMPILER INVOKED BY: C:\Program Files (x86)\Cypress\PSoC Creator\4.2\PSoC Creator\import\keil\pk51\9.51\C51\BIN\c51.exe 
                    -main.c NOIV LARGE MODDP2 OMF2 VB(1) NOIP INCDIR(.,Generated_Source\PSoC3) FF(3) DB DF(DEBUG) WL(2) PR(.\DP8051\DP8051_Ke
                    -il_951\Debug/main.lst) CD OT(2,SIZE) OJ(.\DP8051\DP8051_Keil_951\Debug\main.obj)

line level    source

   1          /* ========================================
   2           *
   3           * Copyright YOUR COMPANY, THE YEAR
   4           * All Rights Reserved
   5           * UNPUBLISHED, LICENSED SOFTWARE.
   6           *
   7           * CONFIDENTIAL AND PROPRIETARY INFORMATION
   8           * WHICH IS THE PROPERTY OF your company.
   9           *
  10           * ========================================
  11          */
  12          #include "project.h"
  13          #define ON         1
  14          #define OFF        0
  15          #define Normal     0
  16          #define Afterhours 1
  17          
  18          void Initialize();
  19          void LCD_Print();
  20          void TrafficLight_Operation();
  21          void Afterhours_Operation();
  22          
  23          #define IDEAL_DURATION  02
  24          #define GREEN_DURATION  10
  25          #define AMBER_DURATION  02
  26          #define RED_DURATION    44
  27          
  28          enum {STATE_1,STATE_2, STATE_3,STATE_4, STATE_5, STATE_6,STATE_7,STATE_8, Ideal};
  29          //uint8 TimeInState;
  30          uint8 CurrentState;
  31          uint8 OneSecondFlag;
  32          uint8 Ftimer ;
  33          uint8 Rtimer ;
  34          uint8 Dtimer ;
  35          uint8 Ltimer ;
  36          uint8 Switch1CaptureFlag = 0;
  37          uint8 FtimerFlag = 0;
  38          uint8 RtimerFlag = 0;
  39          uint8 DtimerFlag = 0;
  40          uint8 LtimerFlag = 0;
  41          uint8 FCurrentState;
  42          uint8 RCurrentState;
  43          uint8 DCurrentState;
  44          uint8 LCurrentState;
  45          uint8 FPreviousState;
  46          uint8 RPreviousState;
  47          uint8 DPreviousState;
  48          uint8 LPreviousState;
  49          uint8 FRedLEDState =0;
  50          uint8 FGreenLEDState =0;
  51          uint8 FAmberLEDState =0;
  52          uint8 RRedLEDState =0;
  53          uint8 RGreenLEDState =0;
C51 COMPILER V9.51   MAIN                                                                  04/25/2019 18:56:08 PAGE 2   

  54          uint8 RAmberLEDState =0;
  55          uint8 DRedLEDState =0;
  56          uint8 DGreenLEDState =0;
  57          uint8 DAmberLEDState =0;
  58          uint8 LRedLEDState =0;
  59          uint8 LGreenLEDState =0;
  60          uint8 LAmberLEDState =0;
  61          uint8 InitialCount=0;
  62          
  63          int main(void)
  64          {
  65   1           
  66   1          CyGlobalIntEnable; /* Enable global interrupts. */
  67   1          
  68   1          Initialize();
  69   1          
  70   1          /* Place your initialization/startup code here (e.g. MyInst_Start()) */
  71   1          LED_UpdateTimer_Start();
  72   1          LED_UpdateISR_Start();
  73   1          SW_ISR1_Start();
  74   1          LCD_Start();
  75   1      
  76   1          for(;;)
  77   1          {
  78   2              if(Switch1CaptureFlag){
  79   3                  Switch1CaptureFlag=0;
  80   3                  SW_ISR1_ClearPending();
  81   3                  if(CurrentState == Normal){
  82   4                      FPreviousState = FCurrentState;
  83   4                      RPreviousState = RCurrentState;
  84   4                      DPreviousState = DCurrentState;
  85   4                      LPreviousState = LCurrentState;
  86   4                      CurrentState = Afterhours;
  87   4                  }else{
  88   4                      CurrentState = Normal;
  89   4                       FCurrentState = FPreviousState;
  90   4                       RCurrentState = RPreviousState;
  91   4                       DCurrentState = DPreviousState;
  92   4                       LCurrentState = LPreviousState;
  93   4                       Front_Red_LED_Write(FRedLEDState);
  94   4                       Front_Amber_LED_Write(FAmberLEDState);
  95   4                       Front_Green_LED_Write(FGreenLEDState);
  96   4                       Right_Red_LED_Write(RRedLEDState);
  97   4                       Right_Amber_LED_Write(RAmberLEDState);
  98   4                       Right_Green_LED_Write(RGreenLEDState);
  99   4                       Red_LED_Write(DRedLEDState);
 100   4                       Amber_LED_Write(DAmberLEDState);
 101   4                       Green_LED_Write(DGreenLEDState);
 102   4                       Left_Red_LED_Write(LRedLEDState);
 103   4                       Left_Amber_LED_Write(LAmberLEDState);
 104   4                       Left_Green_LED_Write(LGreenLEDState);
 105   4                      
 106   4                  }
 107   3              }
 108   2              if(CurrentState == Normal){
 109   3                  TrafficLight_Operation();
 110   3                  
 111   3              }else if(CurrentState == Afterhours){
 112   3                  
 113   3                  Afterhours_Operation();
 114   3              }else{
 115   3                  
C51 COMPILER V9.51   MAIN                                                                  04/25/2019 18:56:08 PAGE 3   

 116   3              }
 117   2             
 118   2       
 119   2          }
 120   1      }
 121          
 122          void Initialize(){
 123   1          CurrentState =  Normal;
 124   1          FCurrentState = STATE_1 ;
 125   1          RCurrentState = STATE_1 ;
 126   1          DCurrentState = STATE_1 ;
 127   1          LCurrentState = STATE_1 ;
 128   1          
 129   1          FPreviousState = STATE_1 ;
 130   1          RPreviousState = STATE_1 ;
 131   1          DPreviousState = STATE_1 ;
 132   1          LPreviousState = STATE_1 ;
 133   1          
 134   1          InitialCount = 1;
 135   1          Ftimer = 02;
 136   1          Rtimer = 16;
 137   1          Dtimer = 30;
 138   1          Ltimer = 44;
 139   1          Front_Red_LED_Write(ON);
 140   1          FRedLEDState = ON;
 141   1          Right_Red_LED_Write(ON);
 142   1          RRedLEDState = ON;
 143   1          Red_LED_Write(ON); 
 144   1          DRedLEDState = ON;
 145   1          Left_Red_LED_Write(ON);
 146   1          LRedLEDState = ON;
 147   1      }
 148          
 149          void TrafficLight_Operation(){
 150   1          
 151   1           switch(FCurrentState){
 152   2                  case STATE_1:{
 153   3                       if((Ftimer == 02)&&(FtimerFlag == 0)){
 154   4                          Front_Green_LED_Write(OFF);
 155   4                          FGreenLEDState = OFF;
 156   4                          Front_Red_LED_Write(ON);
 157   4                          FRedLEDState = ON;
 158   4                          FCurrentState = STATE_2;
 159   4                       }
 160   3                      break;
 161   3                  }case STATE_2:{
 162   3                      if(Ftimer == 0){
 163   4                          Ftimer = AMBER_DURATION;
 164   4                          FtimerFlag = 1;
 165   4                          FCurrentState = STATE_3;
 166   4                      }
 167   3                      break;
 168   3                  }case STATE_3:{
 169   3                      if((Ftimer == AMBER_DURATION)&&(FtimerFlag == 1)){
 170   4                          Front_Amber_LED_Write(ON);
 171   4                          FAmberLEDState = ON;
 172   4                          Front_Red_LED_Write(OFF);
 173   4                          FRedLEDState = OFF;
 174   4                          FCurrentState = STATE_4;
 175   4                       }
 176   3      
 177   3                      break;
C51 COMPILER V9.51   MAIN                                                                  04/25/2019 18:56:08 PAGE 4   

 178   3                  }case STATE_4:{
 179   3                       if((Ftimer == 0)&& (FtimerFlag == 1)){
 180   4                          Ftimer = GREEN_DURATION;
 181   4                          FtimerFlag = 2;
 182   4                          FCurrentState = STATE_5;
 183   4                      }
 184   3                      break;
 185   3                  }case STATE_5:{
 186   3                     if ((Ftimer == GREEN_DURATION)&&(FtimerFlag == 2)){
 187   4                          Front_Green_LED_Write(ON);
 188   4                          FGreenLEDState = ON;
 189   4                          Front_Amber_LED_Write(OFF);
 190   4                          FAmberLEDState = OFF;
 191   4                          FCurrentState = STATE_6;
 192   4                      }
 193   3                      break;
 194   3                  }case STATE_6:{
 195   3                      if((Ftimer == 0)&& (FtimerFlag == 2)){
 196   4                          Ftimer = RED_DURATION;
 197   4                          FtimerFlag = 3;
 198   4                          FCurrentState = STATE_7;
 199   4                      }
 200   3                      break;
 201   3                  }case STATE_7:{
 202   3                      if((FtimerFlag == 3)&&(Ftimer == RED_DURATION)){
 203   4                         Front_Green_LED_Write(OFF);
 204   4                         FGreenLEDState = OFF;
 205   4                         Front_Red_LED_Write(ON);
 206   4                         FRedLEDState = ON;
 207   4                         FCurrentState = STATE_2;
 208   4                      }
 209   3                      break;
 210   3                  }
 211   2                  
 212   2              } 
 213   1              switch(RCurrentState){
 214   2                  case STATE_1:{
 215   3                       if((Rtimer == 16)&&(RtimerFlag == 0)){
 216   4                          RCurrentState = STATE_2;
 217   4                       }
 218   3                      break;
 219   3                  }case STATE_2:{
 220   3                      if(Rtimer == 0){
 221   4                          Rtimer = AMBER_DURATION;
 222   4                          RtimerFlag = 1;
 223   4                          RCurrentState = STATE_3;
 224   4                      }
 225   3                      break;
 226   3                  }case STATE_3:{
 227   3                      if(Rtimer == AMBER_DURATION){
 228   4                          Right_Red_LED_Write(OFF);
 229   4                          RRedLEDState = OFF;
 230   4                          Right_Amber_LED_Write(ON);
 231   4                          RAmberLEDState = ON;
 232   4                          RCurrentState = STATE_4;
 233   4                       
 234   4                      }
 235   3                      break;
 236   3                  }case STATE_4:{
 237   3                      if((Rtimer == 0)&& (RtimerFlag == 1)){
 238   4                          Rtimer = GREEN_DURATION;
 239   4                          RtimerFlag = 2;
C51 COMPILER V9.51   MAIN                                                                  04/25/2019 18:56:08 PAGE 5   

 240   4                          RCurrentState = STATE_5;
 241   4                      }
 242   3                      break;
 243   3                  }case STATE_5:{
 244   3                      if ((Rtimer == GREEN_DURATION)&&(RtimerFlag == 2)){
 245   4                          Right_Green_LED_Write(ON);
 246   4                          RGreenLEDState = ON;
 247   4                          Right_Amber_LED_Write(OFF);
 248   4                          RAmberLEDState = OFF;
 249   4                          RCurrentState = STATE_6;
 250   4                      }
 251   3                      break;
 252   3                  }case STATE_6:{
 253   3                      if((Rtimer == 0)&& (RtimerFlag == 2)){
 254   4                          Rtimer = RED_DURATION;
 255   4                          RtimerFlag = 3;
 256   4                          RCurrentState = STATE_7;
 257   4                      }
 258   3                      break;
 259   3                  }case STATE_7:{
 260   3                      if((RtimerFlag == 3) &&(Rtimer == RED_DURATION)){
 261   4                          Right_Green_LED_Write(OFF);
 262   4                          RGreenLEDState = OFF;
 263   4                          Right_Red_LED_Write(ON);
 264   4                          RRedLEDState = ON;
 265   4                          RCurrentState = STATE_2;
 266   4                      }
 267   3                      break;
 268   3                  }
 269   2                  
 270   2              }
 271   1              switch(DCurrentState){
 272   2                  case STATE_1:{
 273   3                       if((Dtimer == 30)&&(DtimerFlag == 0)){
 274   4                          DCurrentState = STATE_2;
 275   4                       }
 276   3                      break;
 277   3                  }case STATE_2:{
 278   3                      if(Dtimer == 0){
 279   4                          Dtimer = AMBER_DURATION;
 280   4                          DtimerFlag = 1;
 281   4                          DCurrentState = STATE_3;
 282   4                      }
 283   3                      break;
 284   3                  }case STATE_3:{
 285   3                      if(Dtimer == AMBER_DURATION){
 286   4                          Red_LED_Write(OFF);
 287   4                          DRedLEDState = OFF;
 288   4                          Amber_LED_Write(ON);
 289   4                          DAmberLEDState = ON;
 290   4                          DCurrentState = STATE_4;
 291   4                       
 292   4                      }
 293   3                      break;
 294   3                  }case STATE_4:{
 295   3                      if((Dtimer == 0)&& (DtimerFlag == 1)){
 296   4                          Dtimer = GREEN_DURATION;
 297   4                          DtimerFlag = 2;
 298   4                          DCurrentState = STATE_5;
 299   4                      }
 300   3                      break;
 301   3                  }case STATE_5:{
C51 COMPILER V9.51   MAIN                                                                  04/25/2019 18:56:08 PAGE 6   

 302   3                      if ((Dtimer == GREEN_DURATION)&&(DtimerFlag == 2)){
 303   4                          Green_LED_Write(ON);
 304   4                          DGreenLEDState = ON;
 305   4                          Amber_LED_Write(OFF);
 306   4                          DAmberLEDState = OFF;
 307   4                          DCurrentState = STATE_6;
 308   4                      }
 309   3                      break;
 310   3                  }case STATE_6:{
 311   3                      if((Dtimer == 0)&& (DtimerFlag == 2)){
 312   4                          Dtimer = RED_DURATION;
 313   4                          DtimerFlag = 3;
 314   4                          DCurrentState = STATE_7;
 315   4                      }
 316   3                      break;
 317   3                  }case STATE_7:{
 318   3                      if((DtimerFlag == 3) &&(Dtimer == RED_DURATION)){
 319   4                          Green_LED_Write(OFF);
 320   4                          DGreenLEDState = OFF;
 321   4                          Red_LED_Write(ON);
 322   4                          DRedLEDState = ON;
 323   4                          DCurrentState = STATE_2;
 324   4                      }
 325   3                      break;
 326   3                  }
 327   2                  
 328   2              } 
 329   1              switch(LCurrentState){
 330   2                  case STATE_1:{
 331   3                       if((Ltimer == RED_DURATION)&&(LtimerFlag == 0)){
 332   4                          LCurrentState = STATE_2;
 333   4                       }
 334   3                      break;
 335   3                  }case STATE_2:{
 336   3                      if(Ltimer == 0){
 337   4                          Ltimer = AMBER_DURATION;
 338   4                          LtimerFlag = 1;
 339   4                          LCurrentState = STATE_3;
 340   4                      }
 341   3                      break;
 342   3                  }case STATE_3:{
 343   3                      if(Ltimer == AMBER_DURATION){
 344   4                          Left_Red_LED_Write(OFF);
 345   4                          LRedLEDState = OFF;
 346   4                          Left_Amber_LED_Write(ON);
 347   4                          LAmberLEDState = ON;
 348   4                          LCurrentState = STATE_4;
 349   4                       
 350   4                      }
 351   3                      break;
 352   3                  }case STATE_4:{
 353   3                      if((Ltimer == 0)&& (LtimerFlag == 1)){
 354   4                          Ltimer = GREEN_DURATION;
 355   4                          LtimerFlag = 2;
 356   4                          LCurrentState = STATE_5;
 357   4                      }
 358   3                      break;
 359   3                  }case STATE_5:{
 360   3                      if ((Ltimer == GREEN_DURATION)&&(LtimerFlag == 2)){
 361   4                          Left_Green_LED_Write(ON);
 362   4                          LGreenLEDState = ON;
 363   4                          Left_Amber_LED_Write(OFF);
C51 COMPILER V9.51   MAIN                                                                  04/25/2019 18:56:08 PAGE 7   

 364   4                          LAmberLEDState = OFF;
 365   4                          LCurrentState = STATE_6;
 366   4                      }
 367   3                      break;
 368   3                  }case STATE_6:{
 369   3                      if((Ltimer == 0)&& (LtimerFlag == 2)){
 370   4                          Ltimer = RED_DURATION;
 371   4                          LtimerFlag = 3;
 372   4                          LCurrentState = STATE_7;
 373   4                      }
 374   3                      break;
 375   3                  }case STATE_7:{
 376   3                      if((LtimerFlag == 3) &&(Ltimer == RED_DURATION)){
 377   4                          Left_Green_LED_Write(OFF);
 378   4                          LGreenLEDState = OFF;
 379   4                          Left_Red_LED_Write(ON);
 380   4                          LRedLEDState = ON;
 381   4                          LCurrentState = STATE_2;
 382   4                      }
 383   3                      break;
 384   3                  }
 385   2                  
 386   2              } 
 387   1              if(OneSecondFlag){
 388   2              OneSecondFlag = 0;
 389   2              --Ftimer;
 390   2              --Rtimer;
 391   2              --Dtimer;
 392   2              --Ltimer;
 393   2          }
 394   1              LCD_Print();
 395   1      }
 396          
 397          void Afterhours_Operation(){
 398   1          Front_Green_LED_Write(OFF);
 399   1          Front_Red_LED_Write(OFF);
 400   1          Right_Green_LED_Write(OFF);
 401   1          Right_Red_LED_Write(OFF);
 402   1          Left_Green_LED_Write(OFF);
 403   1          Left_Red_LED_Write(OFF);
 404   1          Green_LED_Write(OFF);
 405   1          Red_LED_Write(OFF);
 406   1          Front_Amber_LED_Write(ON);
 407   1          Right_Amber_LED_Write(ON);
 408   1          Left_Amber_LED_Write(ON);
 409   1          Amber_LED_Write(ON);
 410   1          CyDelay(500);
 411   1          Front_Amber_LED_Write(OFF);
 412   1          Right_Amber_LED_Write(OFF);
 413   1          Left_Amber_LED_Write(OFF);
 414   1          Amber_LED_Write(OFF);
 415   1          CyDelay(500);
 416   1      }
 417          void LCD_Print(){
 418   1              
 419   1              if(Front_Green_LED_Read()== ON){
 420   2                  LCD_Position(0,0);
 421   2                  LCD_PrintString("FTG: ");
 422   2                  LCD_PrintString("  ");
 423   2                  LCD_Position(0,5);
 424   2                  LCD_PrintNumber(Ftimer);
 425   2              } else if(Front_Red_LED_Read()== ON){
C51 COMPILER V9.51   MAIN                                                                  04/25/2019 18:56:08 PAGE 8   

 426   2                  LCD_Position(0,0);
 427   2                  LCD_PrintString("FTR: ");
 428   2                  LCD_PrintString("  ");
 429   2                  LCD_Position(0,5);
 430   2                  LCD_PrintNumber(Ftimer);
 431   2              }else if(Front_Amber_LED_Read()== ON){
 432   2                  LCD_Position(0,0);
 433   2                  LCD_PrintString("FTA: ");
 434   2                  LCD_PrintString("  ");
 435   2                  LCD_Position(0,5);
 436   2                  LCD_PrintNumber(Ftimer);
 437   2              }
 438   1              
 439   1              if(Right_Green_LED_Read()== ON){
 440   2                  LCD_Position(0,8);
 441   2                  LCD_PrintString("RTG: ");
 442   2                  LCD_PrintString("  ");
 443   2                  LCD_Position(0,13);
 444   2                  LCD_PrintNumber(Rtimer);
 445   2              }else if(Right_Red_LED_Read()== ON){
 446   2                  LCD_Position(0,8);
 447   2                  LCD_PrintString("RTR: ");
 448   2                  LCD_PrintString("  ");
 449   2                  LCD_Position(0,13);
 450   2                  LCD_PrintNumber(Rtimer);
 451   2              }else if(Right_Amber_LED_Read()== ON){
 452   2                  LCD_Position(0,8);
 453   2                  LCD_PrintString("RTA: ");
 454   2                  LCD_PrintString("  ");
 455   2                  LCD_Position(0,13);
 456   2                  LCD_PrintNumber(Rtimer);
 457   2              }
 458   1              
 459   1              if( Left_Green_LED_Read() == ON){
 460   2                  LCD_Position(1,0);
 461   2                  LCD_PrintString("LTG: ");
 462   2                  LCD_PrintString("  ");
 463   2                  LCD_Position(1,5);
 464   2                  LCD_PrintNumber(Ltimer);
 465   2              }else if( Left_Red_LED_Read() == ON){
 466   2                  LCD_Position(1,0);
 467   2                  LCD_PrintString("LTR: ");
 468   2                  LCD_PrintString("  ");
 469   2                  LCD_Position(1,5);
 470   2                  LCD_PrintNumber(Ltimer);
 471   2              }else if( Left_Amber_LED_Read() == ON){
 472   2                  LCD_Position(1,0);
 473   2                  LCD_PrintString("LTA: ");
 474   2                  LCD_PrintString("  ");
 475   2                  LCD_Position(1,5);
 476   2                  LCD_PrintNumber(Ltimer);
 477   2              }
 478   1              
 479   1              if( Green_LED_Read()== ON){
 480   2                  LCD_Position(1,8);
 481   2                  LCD_PrintString("DTG: ");
 482   2                  LCD_PrintString("  ");
 483   2                  LCD_Position(1,13);
 484   2                  LCD_PrintNumber(Dtimer);
 485   2              }else if( Red_LED_Read()== ON){
 486   2                  LCD_Position(1,8);
 487   2                  LCD_PrintString("DTR: ");
C51 COMPILER V9.51   MAIN                                                                  04/25/2019 18:56:08 PAGE 9   

 488   2                  LCD_PrintString("  ");
 489   2                  LCD_Position(1,13);
 490   2                  LCD_PrintNumber(Dtimer);
 491   2              }else if(Amber_LED_Read()== ON){
 492   2                  LCD_Position(1,8);
 493   2                  LCD_PrintString("DTA: ");
 494   2                  LCD_PrintString("  ");
 495   2                  LCD_Position(1,13);
 496   2                  LCD_PrintNumber(Dtimer);
 497   2              }
 498   1              
 499   1      }
 500          /* [] END OF FILE */
C51 COMPILER V9.51   MAIN                                                                  04/25/2019 18:56:08 PAGE 10  

ASSEMBLY LISTING OF GENERATED OBJECT CODE


             ; FUNCTION main (BEGIN)
                                           ; SOURCE LINE # 63
                                           ; SOURCE LINE # 64
                                           ; SOURCE LINE # 66
0000 D2AF              SETB    EA
0002 9044F4            MOV     DPTR,#044F4H
0005 74FD              MOV     A,#0FDH
0007 F0                MOVX    @DPTR,A
                                           ; SOURCE LINE # 68
0008 120000      R     LCALL   Initialize
                                           ; SOURCE LINE # 71
000B 120000      E     LCALL   LED_UpdateTimer_Start
                                           ; SOURCE LINE # 72
000E 120000      E     LCALL   LED_UpdateISR_Start
                                           ; SOURCE LINE # 73
0011 120000      E     LCALL   SW_ISR1_Start
                                           ; SOURCE LINE # 74
0014 120000      E     LCALL   LCD_Start
                                           ; SOURCE LINE # 76
0017         ?C0001:
                                           ; SOURCE LINE # 77
                                           ; SOURCE LINE # 78
0017 900000      R     MOV     DPTR,#Switch1CaptureFlag
001A E0                MOVX    A,@DPTR
001B FF                MOV     R7,A
001C EF                MOV     A,R7
001D 7003              JNZ     $ + 5H
001F 020000      R     LJMP    ?C0003
                                           ; SOURCE LINE # 79
0022 900000      R     MOV     DPTR,#Switch1CaptureFlag
0025 E4                CLR     A
0026 F0                MOVX    @DPTR,A
                                           ; SOURCE LINE # 80
0027 120000      E     LCALL   SW_ISR1_ClearPending
                                           ; SOURCE LINE # 81
002A 900000      R     MOV     DPTR,#CurrentState
002D E0                MOVX    A,@DPTR
002E FF                MOV     R7,A
002F EF                MOV     A,R7
0030 7031              JNZ     ?C0004
                                           ; SOURCE LINE # 82
0032 900000      R     MOV     DPTR,#FCurrentState
0035 E0                MOVX    A,@DPTR
0036 FF                MOV     R7,A
0037 900000      R     MOV     DPTR,#FPreviousState
003A EF                MOV     A,R7
003B F0                MOVX    @DPTR,A
                                           ; SOURCE LINE # 83
003C 900000      R     MOV     DPTR,#RCurrentState
003F E0                MOVX    A,@DPTR
0040 FF                MOV     R7,A
0041 900000      R     MOV     DPTR,#RPreviousState
0044 EF                MOV     A,R7
0045 F0                MOVX    @DPTR,A
                                           ; SOURCE LINE # 84
0046 900000      R     MOV     DPTR,#DCurrentState
0049 E0                MOVX    A,@DPTR
004A FF                MOV     R7,A
004B 900000      R     MOV     DPTR,#DPreviousState
C51 COMPILER V9.51   MAIN                                                                  04/25/2019 18:56:08 PAGE 11  

004E EF                MOV     A,R7
004F F0                MOVX    @DPTR,A
                                           ; SOURCE LINE # 85
0050 900000      R     MOV     DPTR,#LCurrentState
0053 E0                MOVX    A,@DPTR
0054 FF                MOV     R7,A
0055 900000      R     MOV     DPTR,#LPreviousState
0058 EF                MOV     A,R7
0059 F0                MOVX    @DPTR,A
                                           ; SOURCE LINE # 86
005A 900000      R     MOV     DPTR,#CurrentState
005D 7401              MOV     A,#01H
005F F0                MOVX    @DPTR,A
                                           ; SOURCE LINE # 87
0060 020000      R     LJMP    ?C0003
0063         ?C0004:
                                           ; SOURCE LINE # 88
0063 900000      R     MOV     DPTR,#CurrentState
0066 E4                CLR     A
0067 F0                MOVX    @DPTR,A
                                           ; SOURCE LINE # 89
0068 900000      R     MOV     DPTR,#FPreviousState
006B E0                MOVX    A,@DPTR
006C FF                MOV     R7,A
006D 900000      R     MOV     DPTR,#FCurrentState
0070 EF                MOV     A,R7
0071 F0                MOVX    @DPTR,A
                                           ; SOURCE LINE # 90
0072 900000      R     MOV     DPTR,#RPreviousState
0075 E0                MOVX    A,@DPTR
0076 FF                MOV     R7,A
0077 900000      R     MOV     DPTR,#RCurrentState
007A EF                MOV     A,R7
007B F0                MOVX    @DPTR,A
                                           ; SOURCE LINE # 91
007C 900000      R     MOV     DPTR,#DPreviousState
007F E0                MOVX    A,@DPTR
0080 FF                MOV     R7,A
0081 900000      R     MOV     DPTR,#DCurrentState
0084 EF                MOV     A,R7
0085 F0                MOVX    @DPTR,A
                                           ; SOURCE LINE # 92
0086 900000      R     MOV     DPTR,#LPreviousState
0089 E0                MOVX    A,@DPTR
008A FF                MOV     R7,A
008B 900000      R     MOV     DPTR,#LCurrentState
008E EF                MOV     A,R7
008F F0                MOVX    @DPTR,A
                                           ; SOURCE LINE # 93
0090 900000      R     MOV     DPTR,#FRedLEDState
0093 E0                MOVX    A,@DPTR
0094 FF                MOV     R7,A
0095 120000      E     LCALL   _Front_Red_LED_Write
                                           ; SOURCE LINE # 94
0098 900000      R     MOV     DPTR,#FAmberLEDState
009B E0                MOVX    A,@DPTR
009C FF                MOV     R7,A
009D 120000      E     LCALL   _Front_Amber_LED_Write
                                           ; SOURCE LINE # 95
00A0 900000      R     MOV     DPTR,#FGreenLEDState
00A3 E0                MOVX    A,@DPTR
00A4 FF                MOV     R7,A
C51 COMPILER V9.51   MAIN                                                                  04/25/2019 18:56:08 PAGE 12  

00A5 120000      E     LCALL   _Front_Green_LED_Write
                                           ; SOURCE LINE # 96
00A8 900000      R     MOV     DPTR,#RRedLEDState
00AB E0                MOVX    A,@DPTR
00AC FF                MOV     R7,A
00AD 120000      E     LCALL   _Right_Red_LED_Write
                                           ; SOURCE LINE # 97
00B0 900000      R     MOV     DPTR,#RAmberLEDState
00B3 E0                MOVX    A,@DPTR
00B4 FF                MOV     R7,A
00B5 120000      E     LCALL   _Right_Amber_LED_Write
                                           ; SOURCE LINE # 98
00B8 900000      R     MOV     DPTR,#RGreenLEDState
00BB E0                MOVX    A,@DPTR
00BC FF                MOV     R7,A
00BD 120000      E     LCALL   _Right_Green_LED_Write
                                           ; SOURCE LINE # 99
00C0 900000      R     MOV     DPTR,#DRedLEDState
00C3 E0                MOVX    A,@DPTR
00C4 FF                MOV     R7,A
00C5 120000      E     LCALL   _Red_LED_Write
                                           ; SOURCE LINE # 100
00C8 900000      R     MOV     DPTR,#DAmberLEDState
00CB E0                MOVX    A,@DPTR
00CC FF                MOV     R7,A
00CD 120000      E     LCALL   _Amber_LED_Write
                                           ; SOURCE LINE # 101
00D0 900000      R     MOV     DPTR,#DGreenLEDState
00D3 E0                MOVX    A,@DPTR
00D4 FF                MOV     R7,A
00D5 120000      E     LCALL   _Green_LED_Write
                                           ; SOURCE LINE # 102
00D8 900000      R     MOV     DPTR,#LRedLEDState
00DB E0                MOVX    A,@DPTR
00DC FF                MOV     R7,A
00DD 120000      E     LCALL   _Left_Red_LED_Write
                                           ; SOURCE LINE # 103
00E0 900000      R     MOV     DPTR,#LAmberLEDState
00E3 E0                MOVX    A,@DPTR
00E4 FF                MOV     R7,A
00E5 120000      E     LCALL   _Left_Amber_LED_Write
                                           ; SOURCE LINE # 104
00E8 900000      R     MOV     DPTR,#LGreenLEDState
00EB E0                MOVX    A,@DPTR
00EC FF                MOV     R7,A
00ED 120000      E     LCALL   _Left_Green_LED_Write
                                           ; SOURCE LINE # 106
                                           ; SOURCE LINE # 107
00F0         ?C0003:
                                           ; SOURCE LINE # 108
00F0 900000      R     MOV     DPTR,#CurrentState
00F3 E0                MOVX    A,@DPTR
00F4 FF                MOV     R7,A
00F5 EF                MOV     A,R7
00F6 7006              JNZ     ?C0006
                                           ; SOURCE LINE # 109
00F8 120000      R     LCALL   TrafficLight_Operation
                                           ; SOURCE LINE # 111
00FB 020000      R     LJMP    ?C0001
00FE         ?C0006:
00FE 900000      R     MOV     DPTR,#CurrentState
0101 E0                MOVX    A,@DPTR
C51 COMPILER V9.51   MAIN                                                                  04/25/2019 18:56:08 PAGE 13  

0102 FF                MOV     R7,A
0103 EF                MOV     A,R7
0104 6401              XRL     A,#01H
0106 6003              JZ      $ + 5H
0108 020000      R     LJMP    ?C0001
                                           ; SOURCE LINE # 113
010B 120000      R     LCALL   Afterhours_Operation
                                           ; SOURCE LINE # 114
010E 020000      R     LJMP    ?C0001
0111 22                RET     
             ; FUNCTION main (END)

             ; FUNCTION Initialize (BEGIN)
                                           ; SOURCE LINE # 122
                                           ; SOURCE LINE # 123
0000 900000      R     MOV     DPTR,#CurrentState
0003 E4                CLR     A
0004 F0                MOVX    @DPTR,A
                                           ; SOURCE LINE # 124
0005 900000      R     MOV     DPTR,#FCurrentState
0008 E4                CLR     A
0009 F0                MOVX    @DPTR,A
                                           ; SOURCE LINE # 125
000A 900000      R     MOV     DPTR,#RCurrentState
000D E4                CLR     A
000E F0                MOVX    @DPTR,A
                                           ; SOURCE LINE # 126
000F 900000      R     MOV     DPTR,#DCurrentState
0012 E4                CLR     A
0013 F0                MOVX    @DPTR,A
                                           ; SOURCE LINE # 127
0014 900000      R     MOV     DPTR,#LCurrentState
0017 E4                CLR     A
0018 F0                MOVX    @DPTR,A
                                           ; SOURCE LINE # 129
0019 900000      R     MOV     DPTR,#FPreviousState
001C E4                CLR     A
001D F0                MOVX    @DPTR,A
                                           ; SOURCE LINE # 130
001E 900000      R     MOV     DPTR,#RPreviousState
0021 E4                CLR     A
0022 F0                MOVX    @DPTR,A
                                           ; SOURCE LINE # 131
0023 900000      R     MOV     DPTR,#DPreviousState
0026 E4                CLR     A
0027 F0                MOVX    @DPTR,A
                                           ; SOURCE LINE # 132
0028 900000      R     MOV     DPTR,#LPreviousState
002B E4                CLR     A
002C F0                MOVX    @DPTR,A
                                           ; SOURCE LINE # 134
002D 900000      R     MOV     DPTR,#InitialCount
0030 7401              MOV     A,#01H
0032 F0                MOVX    @DPTR,A
                                           ; SOURCE LINE # 135
0033 900000      R     MOV     DPTR,#Ftimer
0036 7402              MOV     A,#02H
0038 F0                MOVX    @DPTR,A
                                           ; SOURCE LINE # 136
0039 900000      R     MOV     DPTR,#Rtimer
003C 7410              MOV     A,#010H
003E F0                MOVX    @DPTR,A
C51 COMPILER V9.51   MAIN                                                                  04/25/2019 18:56:08 PAGE 14  

                                           ; SOURCE LINE # 137
003F 900000      R     MOV     DPTR,#Dtimer
0042 741E              MOV     A,#01EH
0044 F0                MOVX    @DPTR,A
                                           ; SOURCE LINE # 138
0045 900000      R     MOV     DPTR,#Ltimer
0048 742C              MOV     A,#02CH
004A F0                MOVX    @DPTR,A
                                           ; SOURCE LINE # 139
004B 7F01              MOV     R7,#01H
004D 120000      E     LCALL   _Front_Red_LED_Write
                                           ; SOURCE LINE # 140
0050 900000      R     MOV     DPTR,#FRedLEDState
0053 7401              MOV     A,#01H
0055 F0                MOVX    @DPTR,A
                                           ; SOURCE LINE # 141
0056 7F01              MOV     R7,#01H
0058 120000      E     LCALL   _Right_Red_LED_Write
                                           ; SOURCE LINE # 142
005B 900000      R     MOV     DPTR,#RRedLEDState
005E 7401              MOV     A,#01H
0060 F0                MOVX    @DPTR,A
                                           ; SOURCE LINE # 143
0061 7F01              MOV     R7,#01H
0063 120000      E     LCALL   _Red_LED_Write
                                           ; SOURCE LINE # 144
0066 900000      R     MOV     DPTR,#DRedLEDState
0069 7401              MOV     A,#01H
006B F0                MOVX    @DPTR,A
                                           ; SOURCE LINE # 145
006C 7F01              MOV     R7,#01H
006E 120000      E     LCALL   _Left_Red_LED_Write
                                           ; SOURCE LINE # 146
0071 900000      R     MOV     DPTR,#LRedLEDState
0074 7401              MOV     A,#01H
0076 F0                MOVX    @DPTR,A
                                           ; SOURCE LINE # 147
0077 22                RET     
             ; FUNCTION Initialize (END)

             ; FUNCTION TrafficLight_Operation (BEGIN)
                                           ; SOURCE LINE # 149
                                           ; SOURCE LINE # 151
0000 900000      R     MOV     DPTR,#FCurrentState
0003 E0                MOVX    A,@DPTR
0004 FF                MOV     R7,A
0005 EF                MOV     A,R7
0006 120000      E     LCALL   ?C?CCASE
0009 0000        R     DW      ?C0013
000B 00                DB      00H
000C 0000        R     DW      ?C0015
000E 01                DB      01H
000F 0000        R     DW      ?C0017
0011 02                DB      02H
0012 0000        R     DW      ?C0019
0014 03                DB      03H
0015 0000        R     DW      ?C0021
0017 04                DB      04H
0018 0000        R     DW      ?C0023
001A 05                DB      05H
001B 0000        R     DW      ?C0025
001D 06                DB      06H
C51 COMPILER V9.51   MAIN                                                                  04/25/2019 18:56:08 PAGE 15  

001E 0000              DW      00H
0020 0000        R     DW      ?C0012
                                           ; SOURCE LINE # 152
0022         ?C0013:
                                           ; SOURCE LINE # 153
0022 900000      R     MOV     DPTR,#Ftimer
0025 E0                MOVX    A,@DPTR
0026 FF                MOV     R7,A
0027 EF                MOV     A,R7
0028 6402              XRL     A,#02H
002A 6003              JZ      $ + 5H
002C 020000      R     LJMP    ?C0012
002F 900000      R     MOV     DPTR,#FtimerFlag
0032 E0                MOVX    A,@DPTR
0033 FF                MOV     R7,A
0034 EF                MOV     A,R7
0035 6003              JZ      $ + 5H
0037 020000      R     LJMP    ?C0012
                                           ; SOURCE LINE # 154
003A 7F00              MOV     R7,#00H
003C 120000      E     LCALL   _Front_Green_LED_Write
                                           ; SOURCE LINE # 155
003F 900000      R     MOV     DPTR,#FGreenLEDState
0042 E4                CLR     A
0043 F0                MOVX    @DPTR,A
                                           ; SOURCE LINE # 156
0044 7F01              MOV     R7,#01H
0046 120000      E     LCALL   _Front_Red_LED_Write
                                           ; SOURCE LINE # 157
0049 900000      R     MOV     DPTR,#FRedLEDState
004C 7401              MOV     A,#01H
004E F0                MOVX    @DPTR,A
                                           ; SOURCE LINE # 158
004F 900000      R     MOV     DPTR,#FCurrentState
0052 7401              MOV     A,#01H
0054 F0                MOVX    @DPTR,A
                                           ; SOURCE LINE # 159
                                           ; SOURCE LINE # 160
0055 020000      R     LJMP    ?C0012
                                           ; SOURCE LINE # 161
0058         ?C0015:
                                           ; SOURCE LINE # 162
0058 900000      R     MOV     DPTR,#Ftimer
005B E0                MOVX    A,@DPTR
005C FF                MOV     R7,A
005D EF                MOV     A,R7
005E 6003              JZ      $ + 5H
0060 020000      R     LJMP    ?C0012
                                           ; SOURCE LINE # 163
0063 900000      R     MOV     DPTR,#Ftimer
0066 7402              MOV     A,#02H
0068 F0                MOVX    @DPTR,A
                                           ; SOURCE LINE # 164
0069 900000      R     MOV     DPTR,#FtimerFlag
006C 7401              MOV     A,#01H
006E F0                MOVX    @DPTR,A
                                           ; SOURCE LINE # 165
006F 900000      R     MOV     DPTR,#FCurrentState
0072 7402              MOV     A,#02H
0074 F0                MOVX    @DPTR,A
                                           ; SOURCE LINE # 166
                                           ; SOURCE LINE # 167
C51 COMPILER V9.51   MAIN                                                                  04/25/2019 18:56:08 PAGE 16  

0075 020000      R     LJMP    ?C0012
                                           ; SOURCE LINE # 168
0078         ?C0017:
                                           ; SOURCE LINE # 169
0078 900000      R     MOV     DPTR,#Ftimer
007B E0                MOVX    A,@DPTR
007C FF                MOV     R7,A
007D EF                MOV     A,R7
007E 6402              XRL     A,#02H
0080 6003              JZ      $ + 5H
0082 020000      R     LJMP    ?C0012
0085 900000      R     MOV     DPTR,#FtimerFlag
0088 E0                MOVX    A,@DPTR
0089 FF                MOV     R7,A
008A EF                MOV     A,R7
008B 6401              XRL     A,#01H
008D 6003              JZ      $ + 5H
008F 020000      R     LJMP    ?C0012
                                           ; SOURCE LINE # 170
0092 7F01              MOV     R7,#01H
0094 120000      E     LCALL   _Front_Amber_LED_Write
                                           ; SOURCE LINE # 171
0097 900000      R     MOV     DPTR,#FAmberLEDState
009A 7401              MOV     A,#01H
009C F0                MOVX    @DPTR,A
                                           ; SOURCE LINE # 172
009D 7F00              MOV     R7,#00H
009F 120000      E     LCALL   _Front_Red_LED_Write
                                           ; SOURCE LINE # 173
00A2 900000      R     MOV     DPTR,#FRedLEDState
00A5 E4                CLR     A
00A6 F0                MOVX    @DPTR,A
                                           ; SOURCE LINE # 174
00A7 900000      R     MOV     DPTR,#FCurrentState
00AA 7403              MOV     A,#03H
00AC F0                MOVX    @DPTR,A
                                           ; SOURCE LINE # 175
                                           ; SOURCE LINE # 177
00AD 020000      R     LJMP    ?C0012
                                           ; SOURCE LINE # 178
00B0         ?C0019:
                                           ; SOURCE LINE # 179
00B0 900000      R     MOV     DPTR,#Ftimer
00B3 E0                MOVX    A,@DPTR
00B4 FF                MOV     R7,A
00B5 EF                MOV     A,R7
00B6 6003              JZ      $ + 5H
00B8 020000      R     LJMP    ?C0012
00BB 900000      R     MOV     DPTR,#FtimerFlag
00BE E0                MOVX    A,@DPTR
00BF FF                MOV     R7,A
00C0 EF                MOV     A,R7
00C1 6401              XRL     A,#01H
00C3 6003              JZ      $ + 5H
00C5 020000      R     LJMP    ?C0012
                                           ; SOURCE LINE # 180
00C8 900000      R     MOV     DPTR,#Ftimer
00CB 740A              MOV     A,#0AH
00CD F0                MOVX    @DPTR,A
                                           ; SOURCE LINE # 181
00CE 900000      R     MOV     DPTR,#FtimerFlag
00D1 7402              MOV     A,#02H
C51 COMPILER V9.51   MAIN                                                                  04/25/2019 18:56:08 PAGE 17  

00D3 F0                MOVX    @DPTR,A
                                           ; SOURCE LINE # 182
00D4 900000      R     MOV     DPTR,#FCurrentState
00D7 7404              MOV     A,#04H
00D9 F0                MOVX    @DPTR,A
                                           ; SOURCE LINE # 183
                                           ; SOURCE LINE # 184
00DA 020000      R     LJMP    ?C0012
                                           ; SOURCE LINE # 185
00DD         ?C0021:
                                           ; SOURCE LINE # 186
00DD 900000      R     MOV     DPTR,#Ftimer
00E0 E0                MOVX    A,@DPTR
00E1 FF                MOV     R7,A
00E2 EF                MOV     A,R7
00E3 640A              XRL     A,#0AH
00E5 707A              JNZ     ?C0012
00E7 900000      R     MOV     DPTR,#FtimerFlag
00EA E0                MOVX    A,@DPTR
00EB FF                MOV     R7,A
00EC EF                MOV     A,R7
00ED 6402              XRL     A,#02H
00EF 7070              JNZ     ?C0012
                                           ; SOURCE LINE # 187
00F1 7F01              MOV     R7,#01H
00F3 120000      E     LCALL   _Front_Green_LED_Write
                                           ; SOURCE LINE # 188
00F6 900000      R     MOV     DPTR,#FGreenLEDState
00F9 7401              MOV     A,#01H
00FB F0                MOVX    @DPTR,A
                                           ; SOURCE LINE # 189
00FC 7F00              MOV     R7,#00H
00FE 120000      E     LCALL   _Front_Amber_LED_Write
                                           ; SOURCE LINE # 190
0101 900000      R     MOV     DPTR,#FAmberLEDState
0104 E4                CLR     A
0105 F0                MOVX    @DPTR,A
                                           ; SOURCE LINE # 191
0106 900000      R     MOV     DPTR,#FCurrentState
0109 7405              MOV     A,#05H
010B F0                MOVX    @DPTR,A
                                           ; SOURCE LINE # 192
                                           ; SOURCE LINE # 193
010C 8053              SJMP    ?C0012
                                           ; SOURCE LINE # 194
010E         ?C0023:
                                           ; SOURCE LINE # 195
010E 900000      R     MOV     DPTR,#Ftimer
0111 E0                MOVX    A,@DPTR
0112 FF                MOV     R7,A
0113 EF                MOV     A,R7
0114 704B              JNZ     ?C0012
0116 900000      R     MOV     DPTR,#FtimerFlag
0119 E0                MOVX    A,@DPTR
011A FF                MOV     R7,A
011B EF                MOV     A,R7
011C 6402              XRL     A,#02H
011E 7041              JNZ     ?C0012
                                           ; SOURCE LINE # 196
0120 900000      R     MOV     DPTR,#Ftimer
0123 742C              MOV     A,#02CH
0125 F0                MOVX    @DPTR,A
C51 COMPILER V9.51   MAIN                                                                  04/25/2019 18:56:08 PAGE 18  

                                           ; SOURCE LINE # 197
0126 900000      R     MOV     DPTR,#FtimerFlag
0129 7403              MOV     A,#03H
012B F0                MOVX    @DPTR,A
                                           ; SOURCE LINE # 198
012C 900000      R     MOV     DPTR,#FCurrentState
012F 7406              MOV     A,#06H
0131 F0                MOVX    @DPTR,A
                                           ; SOURCE LINE # 199
                                           ; SOURCE LINE # 200
0132 802D              SJMP    ?C0012
                                           ; SOURCE LINE # 201
0134         ?C0025:
                                           ; SOURCE LINE # 202
0134 900000      R     MOV     DPTR,#FtimerFlag
0137 E0                MOVX    A,@DPTR
0138 FF                MOV     R7,A
0139 EF                MOV     A,R7
013A B40324            CJNE    A,#03H,?C0012
013D 900000      R     MOV     DPTR,#Ftimer
0140 E0                MOVX    A,@DPTR
0141 FF                MOV     R7,A
0142 EF                MOV     A,R7
0143 B42C1B            CJNE    A,#02CH,?C0012
                                           ; SOURCE LINE # 203
0146 7F00              MOV     R7,#00H
0148 120000      E     LCALL   _Front_Green_LED_Write
                                           ; SOURCE LINE # 204
014B 900000      R     MOV     DPTR,#FGreenLEDState
014E E4                CLR     A
014F F0                MOVX    @DPTR,A
                                           ; SOURCE LINE # 205
0150 7F01              MOV     R7,#01H
0152 120000      E     LCALL   _Front_Red_LED_Write
                                           ; SOURCE LINE # 206
0155 900000      R     MOV     DPTR,#FRedLEDState
0158 7401              MOV     A,#01H
015A F0                MOVX    @DPTR,A
                                           ; SOURCE LINE # 207
015B 900000      R     MOV     DPTR,#FCurrentState
015E 7401              MOV     A,#01H
0160 F0                MOVX    @DPTR,A
                                           ; SOURCE LINE # 208
                                           ; SOURCE LINE # 209
                                           ; SOURCE LINE # 210
                                           ; SOURCE LINE # 212
0161         ?C0012:
                                           ; SOURCE LINE # 213
0161 900000      R     MOV     DPTR,#RCurrentState
0164 E0                MOVX    A,@DPTR
0165 FF                MOV     R7,A
0166 EF                MOV     A,R7
0167 120000      E     LCALL   ?C?CCASE
016A 0000        R     DW      ?C0028
016C 00                DB      00H
016D 0000        R     DW      ?C0030
016F 01                DB      01H
0170 0000        R     DW      ?C0032
0172 02                DB      02H
0173 0000        R     DW      ?C0034
0175 03                DB      03H
0176 0000        R     DW      ?C0036
C51 COMPILER V9.51   MAIN                                                                  04/25/2019 18:56:08 PAGE 19  

0178 04                DB      04H
0179 0000        R     DW      ?C0038
017B 05                DB      05H
017C 0000        R     DW      ?C0040
017E 06                DB      06H
017F 0000              DW      00H
0181 0000        R     DW      ?C0027
                                           ; SOURCE LINE # 214
0183         ?C0028:
                                           ; SOURCE LINE # 215
0183 900000      R     MOV     DPTR,#Rtimer
0186 E0                MOVX    A,@DPTR
0187 FF                MOV     R7,A
0188 EF                MOV     A,R7
0189 6410              XRL     A,#010H
018B 6003              JZ      $ + 5H
018D 020000      R     LJMP    ?C0027
0190 900000      R     MOV     DPTR,#RtimerFlag
0193 E0                MOVX    A,@DPTR
0194 FF                MOV     R7,A
0195 EF                MOV     A,R7
0196 6003              JZ      $ + 5H
0198 020000      R     LJMP    ?C0027
                                           ; SOURCE LINE # 216
019B 900000      R     MOV     DPTR,#RCurrentState
019E 7401              MOV     A,#01H
01A0 F0                MOVX    @DPTR,A
                                           ; SOURCE LINE # 217
                                           ; SOURCE LINE # 218
01A1 020000      R     LJMP    ?C0027
                                           ; SOURCE LINE # 219
01A4         ?C0030:
                                           ; SOURCE LINE # 220
01A4 900000      R     MOV     DPTR,#Rtimer
01A7 E0                MOVX    A,@DPTR
01A8 FF                MOV     R7,A
01A9 EF                MOV     A,R7
01AA 6003              JZ      $ + 5H
01AC 020000      R     LJMP    ?C0027
                                           ; SOURCE LINE # 221
01AF 900000      R     MOV     DPTR,#Rtimer
01B2 7402              MOV     A,#02H
01B4 F0                MOVX    @DPTR,A
                                           ; SOURCE LINE # 222
01B5 900000      R     MOV     DPTR,#RtimerFlag
01B8 7401              MOV     A,#01H
01BA F0                MOVX    @DPTR,A
                                           ; SOURCE LINE # 223
01BB 900000      R     MOV     DPTR,#RCurrentState
01BE 7402              MOV     A,#02H
01C0 F0                MOVX    @DPTR,A
                                           ; SOURCE LINE # 224
                                           ; SOURCE LINE # 225
01C1 020000      R     LJMP    ?C0027
                                           ; SOURCE LINE # 226
01C4         ?C0032:
                                           ; SOURCE LINE # 227
01C4 900000      R     MOV     DPTR,#Rtimer
01C7 E0                MOVX    A,@DPTR
01C8 FF                MOV     R7,A
01C9 EF                MOV     A,R7
01CA 6402              XRL     A,#02H
C51 COMPILER V9.51   MAIN                                                                  04/25/2019 18:56:08 PAGE 20  

01CC 6003              JZ      $ + 5H
01CE 020000      R     LJMP    ?C0027
                                           ; SOURCE LINE # 228
01D1 7F00              MOV     R7,#00H
01D3 120000      E     LCALL   _Right_Red_LED_Write
                                           ; SOURCE LINE # 229
01D6 900000      R     MOV     DPTR,#RRedLEDState
01D9 E4                CLR     A
01DA F0                MOVX    @DPTR,A
                                           ; SOURCE LINE # 230
01DB 7F01              MOV     R7,#01H
01DD 120000      E     LCALL   _Right_Amber_LED_Write
                                           ; SOURCE LINE # 231
01E0 900000      R     MOV     DPTR,#RAmberLEDState
01E3 7401              MOV     A,#01H
01E5 F0                MOVX    @DPTR,A
                                           ; SOURCE LINE # 232
01E6 900000      R     MOV     DPTR,#RCurrentState
01E9 7403              MOV     A,#03H
01EB F0                MOVX    @DPTR,A
                                           ; SOURCE LINE # 234
                                           ; SOURCE LINE # 235
01EC 020000      R     LJMP    ?C0027
                                           ; SOURCE LINE # 236
01EF         ?C0034:
                                           ; SOURCE LINE # 237
01EF 900000      R     MOV     DPTR,#Rtimer
01F2 E0                MOVX    A,@DPTR
01F3 FF                MOV     R7,A
01F4 EF                MOV     A,R7
01F5 6003              JZ      $ + 5H
01F7 020000      R     LJMP    ?C0027
01FA 900000      R     MOV     DPTR,#RtimerFlag
01FD E0                MOVX    A,@DPTR
01FE FF                MOV     R7,A
01FF EF                MOV     A,R7
0200 6401              XRL     A,#01H
0202 6003              JZ      $ + 5H
0204 020000      R     LJMP    ?C0027
                                           ; SOURCE LINE # 238
0207 900000      R     MOV     DPTR,#Rtimer
020A 740A              MOV     A,#0AH
020C F0                MOVX    @DPTR,A
                                           ; SOURCE LINE # 239
020D 900000      R     MOV     DPTR,#RtimerFlag
0210 7402              MOV     A,#02H
0212 F0                MOVX    @DPTR,A
                                           ; SOURCE LINE # 240
0213 900000      R     MOV     DPTR,#RCurrentState
0216 7404              MOV     A,#04H
0218 F0                MOVX    @DPTR,A
                                           ; SOURCE LINE # 241
                                           ; SOURCE LINE # 242
0219 020000      R     LJMP    ?C0027
                                           ; SOURCE LINE # 243
021C         ?C0036:
                                           ; SOURCE LINE # 244
021C 900000      R     MOV     DPTR,#Rtimer
021F E0                MOVX    A,@DPTR
0220 FF                MOV     R7,A
0221 EF                MOV     A,R7
0222 640A              XRL     A,#0AH
C51 COMPILER V9.51   MAIN                                                                  04/25/2019 18:56:08 PAGE 21  

0224 707A              JNZ     ?C0027
0226 900000      R     MOV     DPTR,#RtimerFlag
0229 E0                MOVX    A,@DPTR
022A FF                MOV     R7,A
022B EF                MOV     A,R7
022C 6402              XRL     A,#02H
022E 7070              JNZ     ?C0027
                                           ; SOURCE LINE # 245
0230 7F01              MOV     R7,#01H
0232 120000      E     LCALL   _Right_Green_LED_Write
                                           ; SOURCE LINE # 246
0235 900000      R     MOV     DPTR,#RGreenLEDState
0238 7401              MOV     A,#01H
023A F0                MOVX    @DPTR,A
                                           ; SOURCE LINE # 247
023B 7F00              MOV     R7,#00H
023D 120000      E     LCALL   _Right_Amber_LED_Write
                                           ; SOURCE LINE # 248
0240 900000      R     MOV     DPTR,#RAmberLEDState
0243 E4                CLR     A
0244 F0                MOVX    @DPTR,A
                                           ; SOURCE LINE # 249
0245 900000      R     MOV     DPTR,#RCurrentState
0248 7405              MOV     A,#05H
024A F0                MOVX    @DPTR,A
                                           ; SOURCE LINE # 250
                                           ; SOURCE LINE # 251
024B 8053              SJMP    ?C0027
                                           ; SOURCE LINE # 252
024D         ?C0038:
                                           ; SOURCE LINE # 253
024D 900000      R     MOV     DPTR,#Rtimer
0250 E0                MOVX    A,@DPTR
0251 FF                MOV     R7,A
0252 EF                MOV     A,R7
0253 704B              JNZ     ?C0027
0255 900000      R     MOV     DPTR,#RtimerFlag
0258 E0                MOVX    A,@DPTR
0259 FF                MOV     R7,A
025A EF                MOV     A,R7
025B 6402              XRL     A,#02H
025D 7041              JNZ     ?C0027
                                           ; SOURCE LINE # 254
025F 900000      R     MOV     DPTR,#Rtimer
0262 742C              MOV     A,#02CH
0264 F0                MOVX    @DPTR,A
                                           ; SOURCE LINE # 255
0265 900000      R     MOV     DPTR,#RtimerFlag
0268 7403              MOV     A,#03H
026A F0                MOVX    @DPTR,A
                                           ; SOURCE LINE # 256
026B 900000      R     MOV     DPTR,#RCurrentState
026E 7406              MOV     A,#06H
0270 F0                MOVX    @DPTR,A
                                           ; SOURCE LINE # 257
                                           ; SOURCE LINE # 258
0271 802D              SJMP    ?C0027
                                           ; SOURCE LINE # 259
0273         ?C0040:
                                           ; SOURCE LINE # 260
0273 900000      R     MOV     DPTR,#RtimerFlag
0276 E0                MOVX    A,@DPTR
C51 COMPILER V9.51   MAIN                                                                  04/25/2019 18:56:08 PAGE 22  

0277 FF                MOV     R7,A
0278 EF                MOV     A,R7
0279 B40324            CJNE    A,#03H,?C0027
027C 900000      R     MOV     DPTR,#Rtimer
027F E0                MOVX    A,@DPTR
0280 FF                MOV     R7,A
0281 EF                MOV     A,R7
0282 B42C1B            CJNE    A,#02CH,?C0027
                                           ; SOURCE LINE # 261
0285 7F00              MOV     R7,#00H
0287 120000      E     LCALL   _Right_Green_LED_Write
                                           ; SOURCE LINE # 262
028A 900000      R     MOV     DPTR,#RGreenLEDState
028D E4                CLR     A
028E F0                MOVX    @DPTR,A
                                           ; SOURCE LINE # 263
028F 7F01              MOV     R7,#01H
0291 120000      E     LCALL   _Right_Red_LED_Write
                                           ; SOURCE LINE # 264
0294 900000      R     MOV     DPTR,#RRedLEDState
0297 7401              MOV     A,#01H
0299 F0                MOVX    @DPTR,A
                                           ; SOURCE LINE # 265
029A 900000      R     MOV     DPTR,#RCurrentState
029D 7401              MOV     A,#01H
029F F0                MOVX    @DPTR,A
                                           ; SOURCE LINE # 266
                                           ; SOURCE LINE # 267
                                           ; SOURCE LINE # 268
                                           ; SOURCE LINE # 270
02A0         ?C0027:
                                           ; SOURCE LINE # 271
02A0 900000      R     MOV     DPTR,#DCurrentState
02A3 E0                MOVX    A,@DPTR
02A4 FF                MOV     R7,A
02A5 EF                MOV     A,R7
02A6 120000      E     LCALL   ?C?CCASE
02A9 0000        R     DW      ?C0043
02AB 00                DB      00H
02AC 0000        R     DW      ?C0045
02AE 01                DB      01H
02AF 0000        R     DW      ?C0047
02B1 02                DB      02H
02B2 0000        R     DW      ?C0049
02B4 03                DB      03H
02B5 0000        R     DW      ?C0051
02B7 04                DB      04H
02B8 0000        R     DW      ?C0053
02BA 05                DB      05H
02BB 0000        R     DW      ?C0055
02BD 06                DB      06H
02BE 0000              DW      00H
02C0 0000        R     DW      ?C0042
                                           ; SOURCE LINE # 272
02C2         ?C0043:
                                           ; SOURCE LINE # 273
02C2 900000      R     MOV     DPTR,#Dtimer
02C5 E0                MOVX    A,@DPTR
02C6 FF                MOV     R7,A
02C7 EF                MOV     A,R7
02C8 641E              XRL     A,#01EH
02CA 6003              JZ      $ + 5H
C51 COMPILER V9.51   MAIN                                                                  04/25/2019 18:56:08 PAGE 23  

02CC 020000      R     LJMP    ?C0042
02CF 900000      R     MOV     DPTR,#DtimerFlag
02D2 E0                MOVX    A,@DPTR
02D3 FF                MOV     R7,A
02D4 EF                MOV     A,R7
02D5 6003              JZ      $ + 5H
02D7 020000      R     LJMP    ?C0042
                                           ; SOURCE LINE # 274
02DA 900000      R     MOV     DPTR,#DCurrentState
02DD 7401              MOV     A,#01H
02DF F0                MOVX    @DPTR,A
                                           ; SOURCE LINE # 275
                                           ; SOURCE LINE # 276
02E0 020000      R     LJMP    ?C0042
                                           ; SOURCE LINE # 277
02E3         ?C0045:
                                           ; SOURCE LINE # 278
02E3 900000      R     MOV     DPTR,#Dtimer
02E6 E0                MOVX    A,@DPTR
02E7 FF                MOV     R7,A
02E8 EF                MOV     A,R7
02E9 6003              JZ      $ + 5H
02EB 020000      R     LJMP    ?C0042
                                           ; SOURCE LINE # 279
02EE 900000      R     MOV     DPTR,#Dtimer
02F1 7402              MOV     A,#02H
02F3 F0                MOVX    @DPTR,A
                                           ; SOURCE LINE # 280
02F4 900000      R     MOV     DPTR,#DtimerFlag
02F7 7401              MOV     A,#01H
02F9 F0                MOVX    @DPTR,A
                                           ; SOURCE LINE # 281
02FA 900000      R     MOV     DPTR,#DCurrentState
02FD 7402              MOV     A,#02H
02FF F0                MOVX    @DPTR,A
                                           ; SOURCE LINE # 282
                                           ; SOURCE LINE # 283
0300 020000      R     LJMP    ?C0042
                                           ; SOURCE LINE # 284
0303         ?C0047:
                                           ; SOURCE LINE # 285
0303 900000      R     MOV     DPTR,#Dtimer
0306 E0                MOVX    A,@DPTR
0307 FF                MOV     R7,A
0308 EF                MOV     A,R7
0309 6402              XRL     A,#02H
030B 6003              JZ      $ + 5H
030D 020000      R     LJMP    ?C0042
                                           ; SOURCE LINE # 286
0310 7F00              MOV     R7,#00H
0312 120000      E     LCALL   _Red_LED_Write
                                           ; SOURCE LINE # 287
0315 900000      R     MOV     DPTR,#DRedLEDState
0318 E4                CLR     A
0319 F0                MOVX    @DPTR,A
                                           ; SOURCE LINE # 288
031A 7F01              MOV     R7,#01H
031C 120000      E     LCALL   _Amber_LED_Write
                                           ; SOURCE LINE # 289
031F 900000      R     MOV     DPTR,#DAmberLEDState
0322 7401              MOV     A,#01H
0324 F0                MOVX    @DPTR,A
C51 COMPILER V9.51   MAIN                                                                  04/25/2019 18:56:08 PAGE 24  

                                           ; SOURCE LINE # 290
0325 900000      R     MOV     DPTR,#DCurrentState
0328 7403              MOV     A,#03H
032A F0                MOVX    @DPTR,A
                                           ; SOURCE LINE # 292
                                           ; SOURCE LINE # 293
032B 020000      R     LJMP    ?C0042
                                           ; SOURCE LINE # 294
032E         ?C0049:
                                           ; SOURCE LINE # 295
032E 900000      R     MOV     DPTR,#Dtimer
0331 E0                MOVX    A,@DPTR
0332 FF                MOV     R7,A
0333 EF                MOV     A,R7
0334 6003              JZ      $ + 5H
0336 020000      R     LJMP    ?C0042
0339 900000      R     MOV     DPTR,#DtimerFlag
033C E0                MOVX    A,@DPTR
033D FF                MOV     R7,A
033E EF                MOV     A,R7
033F 6401              XRL     A,#01H
0341 6003              JZ      $ + 5H
0343 020000      R     LJMP    ?C0042
                                           ; SOURCE LINE # 296
0346 900000      R     MOV     DPTR,#Dtimer
0349 740A              MOV     A,#0AH
034B F0                MOVX    @DPTR,A
                                           ; SOURCE LINE # 297
034C 900000      R     MOV     DPTR,#DtimerFlag
034F 7402              MOV     A,#02H
0351 F0                MOVX    @DPTR,A
                                           ; SOURCE LINE # 298
0352 900000      R     MOV     DPTR,#DCurrentState
0355 7404              MOV     A,#04H
0357 F0                MOVX    @DPTR,A
                                           ; SOURCE LINE # 299
                                           ; SOURCE LINE # 300
0358 020000      R     LJMP    ?C0042
                                           ; SOURCE LINE # 301
035B         ?C0051:
                                           ; SOURCE LINE # 302
035B 900000      R     MOV     DPTR,#Dtimer
035E E0                MOVX    A,@DPTR
035F FF                MOV     R7,A
0360 EF                MOV     A,R7
0361 640A              XRL     A,#0AH
0363 707A              JNZ     ?C0042
0365 900000      R     MOV     DPTR,#DtimerFlag
0368 E0                MOVX    A,@DPTR
0369 FF                MOV     R7,A
036A EF                MOV     A,R7
036B 6402              XRL     A,#02H
036D 7070              JNZ     ?C0042
                                           ; SOURCE LINE # 303
036F 7F01              MOV     R7,#01H
0371 120000      E     LCALL   _Green_LED_Write
                                           ; SOURCE LINE # 304
0374 900000      R     MOV     DPTR,#DGreenLEDState
0377 7401              MOV     A,#01H
0379 F0                MOVX    @DPTR,A
                                           ; SOURCE LINE # 305
037A 7F00              MOV     R7,#00H
C51 COMPILER V9.51   MAIN                                                                  04/25/2019 18:56:08 PAGE 25  

037C 120000      E     LCALL   _Amber_LED_Write
                                           ; SOURCE LINE # 306
037F 900000      R     MOV     DPTR,#DAmberLEDState
0382 E4                CLR     A
0383 F0                MOVX    @DPTR,A
                                           ; SOURCE LINE # 307
0384 900000      R     MOV     DPTR,#DCurrentState
0387 7405              MOV     A,#05H
0389 F0                MOVX    @DPTR,A
                                           ; SOURCE LINE # 308
                                           ; SOURCE LINE # 309
038A 8053              SJMP    ?C0042
                                           ; SOURCE LINE # 310
038C         ?C0053:
                                           ; SOURCE LINE # 311
038C 900000      R     MOV     DPTR,#Dtimer
038F E0                MOVX    A,@DPTR
0390 FF                MOV     R7,A
0391 EF                MOV     A,R7
0392 704B              JNZ     ?C0042
0394 900000      R     MOV     DPTR,#DtimerFlag
0397 E0                MOVX    A,@DPTR
0398 FF                MOV     R7,A
0399 EF                MOV     A,R7
039A 6402              XRL     A,#02H
039C 7041              JNZ     ?C0042
                                           ; SOURCE LINE # 312
039E 900000      R     MOV     DPTR,#Dtimer
03A1 742C              MOV     A,#02CH
03A3 F0                MOVX    @DPTR,A
                                           ; SOURCE LINE # 313
03A4 900000      R     MOV     DPTR,#DtimerFlag
03A7 7403              MOV     A,#03H
03A9 F0                MOVX    @DPTR,A
                                           ; SOURCE LINE # 314
03AA 900000      R     MOV     DPTR,#DCurrentState
03AD 7406              MOV     A,#06H
03AF F0                MOVX    @DPTR,A
                                           ; SOURCE LINE # 315
                                           ; SOURCE LINE # 316
03B0 802D              SJMP    ?C0042
                                           ; SOURCE LINE # 317
03B2         ?C0055:
                                           ; SOURCE LINE # 318
03B2 900000      R     MOV     DPTR,#DtimerFlag
03B5 E0                MOVX    A,@DPTR
03B6 FF                MOV     R7,A
03B7 EF                MOV     A,R7
03B8 B40324            CJNE    A,#03H,?C0042
03BB 900000      R     MOV     DPTR,#Dtimer
03BE E0                MOVX    A,@DPTR
03BF FF                MOV     R7,A
03C0 EF                MOV     A,R7
03C1 B42C1B            CJNE    A,#02CH,?C0042
                                           ; SOURCE LINE # 319
03C4 7F00              MOV     R7,#00H
03C6 120000      E     LCALL   _Green_LED_Write
                                           ; SOURCE LINE # 320
03C9 900000      R     MOV     DPTR,#DGreenLEDState
03CC E4                CLR     A
03CD F0                MOVX    @DPTR,A
                                           ; SOURCE LINE # 321
C51 COMPILER V9.51   MAIN                                                                  04/25/2019 18:56:08 PAGE 26  

03CE 7F01              MOV     R7,#01H
03D0 120000      E     LCALL   _Red_LED_Write
                                           ; SOURCE LINE # 322
03D3 900000      R     MOV     DPTR,#DRedLEDState
03D6 7401              MOV     A,#01H
03D8 F0                MOVX    @DPTR,A
                                           ; SOURCE LINE # 323
03D9 900000      R     MOV     DPTR,#DCurrentState
03DC 7401              MOV     A,#01H
03DE F0                MOVX    @DPTR,A
                                           ; SOURCE LINE # 324
                                           ; SOURCE LINE # 325
                                           ; SOURCE LINE # 326
                                           ; SOURCE LINE # 328
03DF         ?C0042:
                                           ; SOURCE LINE # 329
03DF 900000      R     MOV     DPTR,#LCurrentState
03E2 E0                MOVX    A,@DPTR
03E3 FF                MOV     R7,A
03E4 EF                MOV     A,R7
03E5 120000      E     LCALL   ?C?CCASE
03E8 0000        R     DW      ?C0058
03EA 00                DB      00H
03EB 0000        R     DW      ?C0060
03ED 01                DB      01H
03EE 0000        R     DW      ?C0062
03F0 02                DB      02H
03F1 0000        R     DW      ?C0064
03F3 03                DB      03H
03F4 0000        R     DW      ?C0066
03F6 04                DB      04H
03F7 0000        R     DW      ?C0068
03F9 05                DB      05H
03FA 0000        R     DW      ?C0070
03FC 06                DB      06H
03FD 0000              DW      00H
03FF 0000        R     DW      ?C0057
                                           ; SOURCE LINE # 330
0401         ?C0058:
                                           ; SOURCE LINE # 331
0401 900000      R     MOV     DPTR,#Ltimer
0404 E0                MOVX    A,@DPTR
0405 FF                MOV     R7,A
0406 EF                MOV     A,R7
0407 642C              XRL     A,#02CH
0409 6003              JZ      $ + 5H
040B 020000      R     LJMP    ?C0057
040E 900000      R     MOV     DPTR,#LtimerFlag
0411 E0                MOVX    A,@DPTR
0412 FF                MOV     R7,A
0413 EF                MOV     A,R7
0414 6003              JZ      $ + 5H
0416 020000      R     LJMP    ?C0057
                                           ; SOURCE LINE # 332
0419 900000      R     MOV     DPTR,#LCurrentState
041C 7401              MOV     A,#01H
041E F0                MOVX    @DPTR,A
                                           ; SOURCE LINE # 333
                                           ; SOURCE LINE # 334
041F 020000      R     LJMP    ?C0057
                                           ; SOURCE LINE # 335
0422         ?C0060:
C51 COMPILER V9.51   MAIN                                                                  04/25/2019 18:56:08 PAGE 27  

                                           ; SOURCE LINE # 336
0422 900000      R     MOV     DPTR,#Ltimer
0425 E0                MOVX    A,@DPTR
0426 FF                MOV     R7,A
0427 EF                MOV     A,R7
0428 6003              JZ      $ + 5H
042A 020000      R     LJMP    ?C0057
                                           ; SOURCE LINE # 337
042D 900000      R     MOV     DPTR,#Ltimer
0430 7402              MOV     A,#02H
0432 F0                MOVX    @DPTR,A
                                           ; SOURCE LINE # 338
0433 900000      R     MOV     DPTR,#LtimerFlag
0436 7401              MOV     A,#01H
0438 F0                MOVX    @DPTR,A
                                           ; SOURCE LINE # 339
0439 900000      R     MOV     DPTR,#LCurrentState
043C 7402              MOV     A,#02H
043E F0                MOVX    @DPTR,A
                                           ; SOURCE LINE # 340
                                           ; SOURCE LINE # 341
043F 020000      R     LJMP    ?C0057
                                           ; SOURCE LINE # 342
0442         ?C0062:
                                           ; SOURCE LINE # 343
0442 900000      R     MOV     DPTR,#Ltimer
0445 E0                MOVX    A,@DPTR
0446 FF                MOV     R7,A
0447 EF                MOV     A,R7
0448 6402              XRL     A,#02H
044A 6003              JZ      $ + 5H
044C 020000      R     LJMP    ?C0057
                                           ; SOURCE LINE # 344
044F 7F00              MOV     R7,#00H
0451 120000      E     LCALL   _Left_Red_LED_Write
                                           ; SOURCE LINE # 345
0454 900000      R     MOV     DPTR,#LRedLEDState
0457 E4                CLR     A
0458 F0                MOVX    @DPTR,A
                                           ; SOURCE LINE # 346
0459 7F01              MOV     R7,#01H
045B 120000      E     LCALL   _Left_Amber_LED_Write
                                           ; SOURCE LINE # 347
045E 900000      R     MOV     DPTR,#LAmberLEDState
0461 7401              MOV     A,#01H
0463 F0                MOVX    @DPTR,A
                                           ; SOURCE LINE # 348
0464 900000      R     MOV     DPTR,#LCurrentState
0467 7403              MOV     A,#03H
0469 F0                MOVX    @DPTR,A
                                           ; SOURCE LINE # 350
                                           ; SOURCE LINE # 351
046A 020000      R     LJMP    ?C0057
                                           ; SOURCE LINE # 352
046D         ?C0064:
                                           ; SOURCE LINE # 353
046D 900000      R     MOV     DPTR,#Ltimer
0470 E0                MOVX    A,@DPTR
0471 FF                MOV     R7,A
0472 EF                MOV     A,R7
0473 6003              JZ      $ + 5H
0475 020000      R     LJMP    ?C0057
C51 COMPILER V9.51   MAIN                                                                  04/25/2019 18:56:08 PAGE 28  

0478 900000      R     MOV     DPTR,#LtimerFlag
047B E0                MOVX    A,@DPTR
047C FF                MOV     R7,A
047D EF                MOV     A,R7
047E 6401              XRL     A,#01H
0480 6003              JZ      $ + 5H
0482 020000      R     LJMP    ?C0057
                                           ; SOURCE LINE # 354
0485 900000      R     MOV     DPTR,#Ltimer
0488 740A              MOV     A,#0AH
048A F0                MOVX    @DPTR,A
                                           ; SOURCE LINE # 355
048B 900000      R     MOV     DPTR,#LtimerFlag
048E 7402              MOV     A,#02H
0490 F0                MOVX    @DPTR,A
                                           ; SOURCE LINE # 356
0491 900000      R     MOV     DPTR,#LCurrentState
0494 7404              MOV     A,#04H
0496 F0                MOVX    @DPTR,A
                                           ; SOURCE LINE # 357
                                           ; SOURCE LINE # 358
0497 020000      R     LJMP    ?C0057
                                           ; SOURCE LINE # 359
049A         ?C0066:
                                           ; SOURCE LINE # 360
049A 900000      R     MOV     DPTR,#Ltimer
049D E0                MOVX    A,@DPTR
049E FF                MOV     R7,A
049F EF                MOV     A,R7
04A0 640A              XRL     A,#0AH
04A2 707A              JNZ     ?C0057
04A4 900000      R     MOV     DPTR,#LtimerFlag
04A7 E0                MOVX    A,@DPTR
04A8 FF                MOV     R7,A
04A9 EF                MOV     A,R7
04AA 6402              XRL     A,#02H
04AC 7070              JNZ     ?C0057
                                           ; SOURCE LINE # 361
04AE 7F01              MOV     R7,#01H
04B0 120000      E     LCALL   _Left_Green_LED_Write
                                           ; SOURCE LINE # 362
04B3 900000      R     MOV     DPTR,#LGreenLEDState
04B6 7401              MOV     A,#01H
04B8 F0                MOVX    @DPTR,A
                                           ; SOURCE LINE # 363
04B9 7F00              MOV     R7,#00H
04BB 120000      E     LCALL   _Left_Amber_LED_Write
                                           ; SOURCE LINE # 364
04BE 900000      R     MOV     DPTR,#LAmberLEDState
04C1 E4                CLR     A
04C2 F0                MOVX    @DPTR,A
                                           ; SOURCE LINE # 365
04C3 900000      R     MOV     DPTR,#LCurrentState
04C6 7405              MOV     A,#05H
04C8 F0                MOVX    @DPTR,A
                                           ; SOURCE LINE # 366
                                           ; SOURCE LINE # 367
04C9 8053              SJMP    ?C0057
                                           ; SOURCE LINE # 368
04CB         ?C0068:
                                           ; SOURCE LINE # 369
04CB 900000      R     MOV     DPTR,#Ltimer
C51 COMPILER V9.51   MAIN                                                                  04/25/2019 18:56:08 PAGE 29  

04CE E0                MOVX    A,@DPTR
04CF FF                MOV     R7,A
04D0 EF                MOV     A,R7
04D1 704B              JNZ     ?C0057
04D3 900000      R     MOV     DPTR,#LtimerFlag
04D6 E0                MOVX    A,@DPTR
04D7 FF                MOV     R7,A
04D8 EF                MOV     A,R7
04D9 6402              XRL     A,#02H
04DB 7041              JNZ     ?C0057
                                           ; SOURCE LINE # 370
04DD 900000      R     MOV     DPTR,#Ltimer
04E0 742C              MOV     A,#02CH
04E2 F0                MOVX    @DPTR,A
                                           ; SOURCE LINE # 371
04E3 900000      R     MOV     DPTR,#LtimerFlag
04E6 7403              MOV     A,#03H
04E8 F0                MOVX    @DPTR,A
                                           ; SOURCE LINE # 372
04E9 900000      R     MOV     DPTR,#LCurrentState
04EC 7406              MOV     A,#06H
04EE F0                MOVX    @DPTR,A
                                           ; SOURCE LINE # 373
                                           ; SOURCE LINE # 374
04EF 802D              SJMP    ?C0057
                                           ; SOURCE LINE # 375
04F1         ?C0070:
                                           ; SOURCE LINE # 376
04F1 900000      R     MOV     DPTR,#LtimerFlag
04F4 E0                MOVX    A,@DPTR
04F5 FF                MOV     R7,A
04F6 EF                MOV     A,R7
04F7 B40324            CJNE    A,#03H,?C0057
04FA 900000      R     MOV     DPTR,#Ltimer
04FD E0                MOVX    A,@DPTR
04FE FF                MOV     R7,A
04FF EF                MOV     A,R7
0500 B42C1B            CJNE    A,#02CH,?C0057
                                           ; SOURCE LINE # 377
0503 7F00              MOV     R7,#00H
0505 120000      E     LCALL   _Left_Green_LED_Write
                                           ; SOURCE LINE # 378
0508 900000      R     MOV     DPTR,#LGreenLEDState
050B E4                CLR     A
050C F0                MOVX    @DPTR,A
                                           ; SOURCE LINE # 379
050D 7F01              MOV     R7,#01H
050F 120000      E     LCALL   _Left_Red_LED_Write
                                           ; SOURCE LINE # 380
0512 900000      R     MOV     DPTR,#LRedLEDState
0515 7401              MOV     A,#01H
0517 F0                MOVX    @DPTR,A
                                           ; SOURCE LINE # 381
0518 900000      R     MOV     DPTR,#LCurrentState
051B 7401              MOV     A,#01H
051D F0                MOVX    @DPTR,A
                                           ; SOURCE LINE # 382
                                           ; SOURCE LINE # 383
                                           ; SOURCE LINE # 384
                                           ; SOURCE LINE # 386
051E         ?C0057:
                                           ; SOURCE LINE # 387
C51 COMPILER V9.51   MAIN                                                                  04/25/2019 18:56:08 PAGE 30  

051E 900000      R     MOV     DPTR,#OneSecondFlag
0521 E0                MOVX    A,@DPTR
0522 FF                MOV     R7,A
0523 EF                MOV     A,R7
0524 601D              JZ      ?C0072
                                           ; SOURCE LINE # 388
0526 900000      R     MOV     DPTR,#OneSecondFlag
0529 E4                CLR     A
052A F0                MOVX    @DPTR,A
                                           ; SOURCE LINE # 389
052B 900000      R     MOV     DPTR,#Ftimer
052E E0                MOVX    A,@DPTR
052F 14                DEC     A
0530 F0                MOVX    @DPTR,A
                                           ; SOURCE LINE # 390
0531 900000      R     MOV     DPTR,#Rtimer
0534 E0                MOVX    A,@DPTR
0535 14                DEC     A
0536 F0                MOVX    @DPTR,A
                                           ; SOURCE LINE # 391
0537 900000      R     MOV     DPTR,#Dtimer
053A E0                MOVX    A,@DPTR
053B 14                DEC     A
053C F0                MOVX    @DPTR,A
                                           ; SOURCE LINE # 392
053D 900000      R     MOV     DPTR,#Ltimer
0540 E0                MOVX    A,@DPTR
0541 14                DEC     A
0542 F0                MOVX    @DPTR,A
                                           ; SOURCE LINE # 393
0543         ?C0072:
                                           ; SOURCE LINE # 394
0543 120000      R     LCALL   LCD_Print
                                           ; SOURCE LINE # 395
0546 22                RET     
             ; FUNCTION TrafficLight_Operation (END)

             ; FUNCTION Afterhours_Operation (BEGIN)
                                           ; SOURCE LINE # 397
                                           ; SOURCE LINE # 398
0000 7F00              MOV     R7,#00H
0002 120000      E     LCALL   _Front_Green_LED_Write
                                           ; SOURCE LINE # 399
0005 7F00              MOV     R7,#00H
0007 120000      E     LCALL   _Front_Red_LED_Write
                                           ; SOURCE LINE # 400
000A 7F00              MOV     R7,#00H
000C 120000      E     LCALL   _Right_Green_LED_Write
                                           ; SOURCE LINE # 401
000F 7F00              MOV     R7,#00H
0011 120000      E     LCALL   _Right_Red_LED_Write
                                           ; SOURCE LINE # 402
0014 7F00              MOV     R7,#00H
0016 120000      E     LCALL   _Left_Green_LED_Write
                                           ; SOURCE LINE # 403
0019 7F00              MOV     R7,#00H
001B 120000      E     LCALL   _Left_Red_LED_Write
                                           ; SOURCE LINE # 404
001E 7F00              MOV     R7,#00H
0020 120000      E     LCALL   _Green_LED_Write
                                           ; SOURCE LINE # 405
0023 7F00              MOV     R7,#00H
C51 COMPILER V9.51   MAIN                                                                  04/25/2019 18:56:08 PAGE 31  

0025 120000      E     LCALL   _Red_LED_Write
                                           ; SOURCE LINE # 406
0028 7F01              MOV     R7,#01H
002A 120000      E     LCALL   _Front_Amber_LED_Write
                                           ; SOURCE LINE # 407
002D 7F01              MOV     R7,#01H
002F 120000      E     LCALL   _Right_Amber_LED_Write
                                           ; SOURCE LINE # 408
0032 7F01              MOV     R7,#01H
0034 120000      E     LCALL   _Left_Amber_LED_Write
                                           ; SOURCE LINE # 409
0037 7F01              MOV     R7,#01H
0039 120000      E     LCALL   _Amber_LED_Write
                                           ; SOURCE LINE # 410
003C 7FF4              MOV     R7,#0F4H
003E 7E01              MOV     R6,#01H
0040 7D00              MOV     R5,#00H
0042 7C00              MOV     R4,#00H
0044 120000      E     LCALL   _?CyDelay
                                           ; SOURCE LINE # 411
0047 7F00              MOV     R7,#00H
0049 120000      E     LCALL   _Front_Amber_LED_Write
                                           ; SOURCE LINE # 412
004C 7F00              MOV     R7,#00H
004E 120000      E     LCALL   _Right_Amber_LED_Write
                                           ; SOURCE LINE # 413
0051 7F00              MOV     R7,#00H
0053 120000      E     LCALL   _Left_Amber_LED_Write
                                           ; SOURCE LINE # 414
0056 7F00              MOV     R7,#00H
0058 120000      E     LCALL   _Amber_LED_Write
                                           ; SOURCE LINE # 415
005B 7FF4              MOV     R7,#0F4H
005D 7E01              MOV     R6,#01H
005F 7D00              MOV     R5,#00H
0061 7C00              MOV     R4,#00H
0063 120000      E     LCALL   _?CyDelay
                                           ; SOURCE LINE # 416
0066 22                RET     
             ; FUNCTION Afterhours_Operation (END)

             ; FUNCTION LCD_Print (BEGIN)
                                           ; SOURCE LINE # 417
                                           ; SOURCE LINE # 419
0000 120000      E     LCALL   Front_Green_LED_Read
0003 EF                MOV     A,R7
0004 6401              XRL     A,#01H
0006 702F              JNZ     ?C0075
                                           ; SOURCE LINE # 420
0008 7D00              MOV     R5,#00H
000A 7F00              MOV     R7,#00H
000C 120000      E     LCALL   _LCD_Position
                                           ; SOURCE LINE # 421
000F 7BFF              MOV     R3,#0FFH
0011 7A00        R     MOV     R2,#HIGH ?SC_0
0013 7900        R     MOV     R1,#LOW ?SC_0
0015 120000      E     LCALL   _LCD_PrintString
                                           ; SOURCE LINE # 422
0018 7BFF              MOV     R3,#0FFH
001A 7A00        R     MOV     R2,#HIGH ?SC_6
001C 7900        R     MOV     R1,#LOW ?SC_6
001E 120000      E     LCALL   _LCD_PrintString
C51 COMPILER V9.51   MAIN                                                                  04/25/2019 18:56:08 PAGE 32  

                                           ; SOURCE LINE # 423
0021 7D05              MOV     R5,#05H
0023 7F00              MOV     R7,#00H
0025 120000      E     LCALL   _LCD_Position
                                           ; SOURCE LINE # 424
0028 900000      R     MOV     DPTR,#Ftimer
002B E0                MOVX    A,@DPTR
002C FF                MOV     R7,A
002D 7E00              MOV     R6,#00H
002F E4                CLR     A
0030 FC                MOV     R4,A
0031 FD                MOV     R5,A
0032 120000      E     LCALL   _LCD_PrintU32Number
                                           ; SOURCE LINE # 425
0035 806C              SJMP    ?C0076
0037         ?C0075:
0037 120000      E     LCALL   Front_Red_LED_Read
003A EF                MOV     A,R7
003B 6401              XRL     A,#01H
003D 702F              JNZ     ?C0077
                                           ; SOURCE LINE # 426
003F 7D00              MOV     R5,#00H
0041 7F00              MOV     R7,#00H
0043 120000      E     LCALL   _LCD_Position
                                           ; SOURCE LINE # 427
0046 7BFF              MOV     R3,#0FFH
0048 7A00        R     MOV     R2,#HIGH ?SC_9
004A 7900        R     MOV     R1,#LOW ?SC_9
004C 120000      E     LCALL   _LCD_PrintString
                                           ; SOURCE LINE # 428
004F 7BFF              MOV     R3,#0FFH
0051 7A00        R     MOV     R2,#HIGH ?SC_6
0053 7900        R     MOV     R1,#LOW ?SC_6
0055 120000      E     LCALL   _LCD_PrintString
                                           ; SOURCE LINE # 429
0058 7D05              MOV     R5,#05H
005A 7F00              MOV     R7,#00H
005C 120000      E     LCALL   _LCD_Position
                                           ; SOURCE LINE # 430
005F 900000      R     MOV     DPTR,#Ftimer
0062 E0                MOVX    A,@DPTR
0063 FF                MOV     R7,A
0064 7E00              MOV     R6,#00H
0066 E4                CLR     A
0067 FC                MOV     R4,A
0068 FD                MOV     R5,A
0069 120000      E     LCALL   _LCD_PrintU32Number
                                           ; SOURCE LINE # 431
006C 8035              SJMP    ?C0076
006E         ?C0077:
006E 120000      E     LCALL   Front_Amber_LED_Read
0071 EF                MOV     A,R7
0072 6401              XRL     A,#01H
0074 702D              JNZ     ?C0076
                                           ; SOURCE LINE # 432
0076 7D00              MOV     R5,#00H
0078 7F00              MOV     R7,#00H
007A 120000      E     LCALL   _LCD_Position
                                           ; SOURCE LINE # 433
007D 7BFF              MOV     R3,#0FFH
007F 7A00        R     MOV     R2,#HIGH ?SC_15
0081 7900        R     MOV     R1,#LOW ?SC_15
C51 COMPILER V9.51   MAIN                                                                  04/25/2019 18:56:08 PAGE 33  

0083 120000      E     LCALL   _LCD_PrintString
                                           ; SOURCE LINE # 434
0086 7BFF              MOV     R3,#0FFH
0088 7A00        R     MOV     R2,#HIGH ?SC_6
008A 7900        R     MOV     R1,#LOW ?SC_6
008C 120000      E     LCALL   _LCD_PrintString
                                           ; SOURCE LINE # 435
008F 7D05              MOV     R5,#05H
0091 7F00              MOV     R7,#00H
0093 120000      E     LCALL   _LCD_Position
                                           ; SOURCE LINE # 436
0096 900000      R     MOV     DPTR,#Ftimer
0099 E0                MOVX    A,@DPTR
009A FF                MOV     R7,A
009B 7E00              MOV     R6,#00H
009D E4                CLR     A
009E FC                MOV     R4,A
009F FD                MOV     R5,A
00A0 120000      E     LCALL   _LCD_PrintU32Number
                                           ; SOURCE LINE # 437
00A3         ?C0076:
                                           ; SOURCE LINE # 439
00A3 120000      E     LCALL   Right_Green_LED_Read
00A6 EF                MOV     A,R7
00A7 6401              XRL     A,#01H
00A9 702F              JNZ     ?C0080
                                           ; SOURCE LINE # 440
00AB 7D08              MOV     R5,#08H
00AD 7F00              MOV     R7,#00H
00AF 120000      E     LCALL   _LCD_Position
                                           ; SOURCE LINE # 441
00B2 7BFF              MOV     R3,#0FFH
00B4 7A00        R     MOV     R2,#HIGH ?SC_21
00B6 7900        R     MOV     R1,#LOW ?SC_21
00B8 120000      E     LCALL   _LCD_PrintString
                                           ; SOURCE LINE # 442
00BB 7BFF              MOV     R3,#0FFH
00BD 7A00        R     MOV     R2,#HIGH ?SC_6
00BF 7900        R     MOV     R1,#LOW ?SC_6
00C1 120000      E     LCALL   _LCD_PrintString
                                           ; SOURCE LINE # 443
00C4 7D0D              MOV     R5,#0DH
00C6 7F00              MOV     R7,#00H
00C8 120000      E     LCALL   _LCD_Position
                                           ; SOURCE LINE # 444
00CB 900000      R     MOV     DPTR,#Rtimer
00CE E0                MOVX    A,@DPTR
00CF FF                MOV     R7,A
00D0 7E00              MOV     R6,#00H
00D2 E4                CLR     A
00D3 FC                MOV     R4,A
00D4 FD                MOV     R5,A
00D5 120000      E     LCALL   _LCD_PrintU32Number
                                           ; SOURCE LINE # 445
00D8 806C              SJMP    ?C0081
00DA         ?C0080:
00DA 120000      E     LCALL   Right_Red_LED_Read
00DD EF                MOV     A,R7
00DE 6401              XRL     A,#01H
00E0 702F              JNZ     ?C0082
                                           ; SOURCE LINE # 446
00E2 7D08              MOV     R5,#08H
C51 COMPILER V9.51   MAIN                                                                  04/25/2019 18:56:08 PAGE 34  

00E4 7F00              MOV     R7,#00H
00E6 120000      E     LCALL   _LCD_Position
                                           ; SOURCE LINE # 447
00E9 7BFF              MOV     R3,#0FFH
00EB 7A00        R     MOV     R2,#HIGH ?SC_27
00ED 7900        R     MOV     R1,#LOW ?SC_27
00EF 120000      E     LCALL   _LCD_PrintString
                                           ; SOURCE LINE # 448
00F2 7BFF              MOV     R3,#0FFH
00F4 7A00        R     MOV     R2,#HIGH ?SC_6
00F6 7900        R     MOV     R1,#LOW ?SC_6
00F8 120000      E     LCALL   _LCD_PrintString
                                           ; SOURCE LINE # 449
00FB 7D0D              MOV     R5,#0DH
00FD 7F00              MOV     R7,#00H
00FF 120000      E     LCALL   _LCD_Position
                                           ; SOURCE LINE # 450
0102 900000      R     MOV     DPTR,#Rtimer
0105 E0                MOVX    A,@DPTR
0106 FF                MOV     R7,A
0107 7E00              MOV     R6,#00H
0109 E4                CLR     A
010A FC                MOV     R4,A
010B FD                MOV     R5,A
010C 120000      E     LCALL   _LCD_PrintU32Number
                                           ; SOURCE LINE # 451
010F 8035              SJMP    ?C0081
0111         ?C0082:
0111 120000      E     LCALL   Right_Amber_LED_Read
0114 EF                MOV     A,R7
0115 6401              XRL     A,#01H
0117 702D              JNZ     ?C0081
                                           ; SOURCE LINE # 452
0119 7D08              MOV     R5,#08H
011B 7F00              MOV     R7,#00H
011D 120000      E     LCALL   _LCD_Position
                                           ; SOURCE LINE # 453
0120 7BFF              MOV     R3,#0FFH
0122 7A00        R     MOV     R2,#HIGH ?SC_33
0124 7900        R     MOV     R1,#LOW ?SC_33
0126 120000      E     LCALL   _LCD_PrintString
                                           ; SOURCE LINE # 454
0129 7BFF              MOV     R3,#0FFH
012B 7A00        R     MOV     R2,#HIGH ?SC_6
012D 7900        R     MOV     R1,#LOW ?SC_6
012F 120000      E     LCALL   _LCD_PrintString
                                           ; SOURCE LINE # 455
0132 7D0D              MOV     R5,#0DH
0134 7F00              MOV     R7,#00H
0136 120000      E     LCALL   _LCD_Position
                                           ; SOURCE LINE # 456
0139 900000      R     MOV     DPTR,#Rtimer
013C E0                MOVX    A,@DPTR
013D FF                MOV     R7,A
013E 7E00              MOV     R6,#00H
0140 E4                CLR     A
0141 FC                MOV     R4,A
0142 FD                MOV     R5,A
0143 120000      E     LCALL   _LCD_PrintU32Number
                                           ; SOURCE LINE # 457
0146         ?C0081:
                                           ; SOURCE LINE # 459
C51 COMPILER V9.51   MAIN                                                                  04/25/2019 18:56:08 PAGE 35  

0146 120000      E     LCALL   Left_Green_LED_Read
0149 EF                MOV     A,R7
014A 6401              XRL     A,#01H
014C 702F              JNZ     ?C0085
                                           ; SOURCE LINE # 460
014E 7D00              MOV     R5,#00H
0150 7F01              MOV     R7,#01H
0152 120000      E     LCALL   _LCD_Position
                                           ; SOURCE LINE # 461
0155 7BFF              MOV     R3,#0FFH
0157 7A00        R     MOV     R2,#HIGH ?SC_39
0159 7900        R     MOV     R1,#LOW ?SC_39
015B 120000      E     LCALL   _LCD_PrintString
                                           ; SOURCE LINE # 462
015E 7BFF              MOV     R3,#0FFH
0160 7A00        R     MOV     R2,#HIGH ?SC_6
0162 7900        R     MOV     R1,#LOW ?SC_6
0164 120000      E     LCALL   _LCD_PrintString
                                           ; SOURCE LINE # 463
0167 7D05              MOV     R5,#05H
0169 7F01              MOV     R7,#01H
016B 120000      E     LCALL   _LCD_Position
                                           ; SOURCE LINE # 464
016E 900000      R     MOV     DPTR,#Ltimer
0171 E0                MOVX    A,@DPTR
0172 FF                MOV     R7,A
0173 7E00              MOV     R6,#00H
0175 E4                CLR     A
0176 FC                MOV     R4,A
0177 FD                MOV     R5,A
0178 120000      E     LCALL   _LCD_PrintU32Number
                                           ; SOURCE LINE # 465
017B 806C              SJMP    ?C0086
017D         ?C0085:
017D 120000      E     LCALL   Left_Red_LED_Read
0180 EF                MOV     A,R7
0181 6401              XRL     A,#01H
0183 702F              JNZ     ?C0087
                                           ; SOURCE LINE # 466
0185 7D00              MOV     R5,#00H
0187 7F01              MOV     R7,#01H
0189 120000      E     LCALL   _LCD_Position
                                           ; SOURCE LINE # 467
018C 7BFF              MOV     R3,#0FFH
018E 7A00        R     MOV     R2,#HIGH ?SC_45
0190 7900        R     MOV     R1,#LOW ?SC_45
0192 120000      E     LCALL   _LCD_PrintString
                                           ; SOURCE LINE # 468
0195 7BFF              MOV     R3,#0FFH
0197 7A00        R     MOV     R2,#HIGH ?SC_6
0199 7900        R     MOV     R1,#LOW ?SC_6
019B 120000      E     LCALL   _LCD_PrintString
                                           ; SOURCE LINE # 469
019E 7D05              MOV     R5,#05H
01A0 7F01              MOV     R7,#01H
01A2 120000      E     LCALL   _LCD_Position
                                           ; SOURCE LINE # 470
01A5 900000      R     MOV     DPTR,#Ltimer
01A8 E0                MOVX    A,@DPTR
01A9 FF                MOV     R7,A
01AA 7E00              MOV     R6,#00H
01AC E4                CLR     A
C51 COMPILER V9.51   MAIN                                                                  04/25/2019 18:56:08 PAGE 36  

01AD FC                MOV     R4,A
01AE FD                MOV     R5,A
01AF 120000      E     LCALL   _LCD_PrintU32Number
                                           ; SOURCE LINE # 471
01B2 8035              SJMP    ?C0086
01B4         ?C0087:
01B4 120000      E     LCALL   Left_Amber_LED_Read
01B7 EF                MOV     A,R7
01B8 6401              XRL     A,#01H
01BA 702D              JNZ     ?C0086
                                           ; SOURCE LINE # 472
01BC 7D00              MOV     R5,#00H
01BE 7F01              MOV     R7,#01H
01C0 120000      E     LCALL   _LCD_Position
                                           ; SOURCE LINE # 473
01C3 7BFF              MOV     R3,#0FFH
01C5 7A00        R     MOV     R2,#HIGH ?SC_51
01C7 7900        R     MOV     R1,#LOW ?SC_51
01C9 120000      E     LCALL   _LCD_PrintString
                                           ; SOURCE LINE # 474
01CC 7BFF              MOV     R3,#0FFH
01CE 7A00        R     MOV     R2,#HIGH ?SC_6
01D0 7900        R     MOV     R1,#LOW ?SC_6
01D2 120000      E     LCALL   _LCD_PrintString
                                           ; SOURCE LINE # 475
01D5 7D05              MOV     R5,#05H
01D7 7F01              MOV     R7,#01H
01D9 120000      E     LCALL   _LCD_Position
                                           ; SOURCE LINE # 476
01DC 900000      R     MOV     DPTR,#Ltimer
01DF E0                MOVX    A,@DPTR
01E0 FF                MOV     R7,A
01E1 7E00              MOV     R6,#00H
01E3 E4                CLR     A
01E4 FC                MOV     R4,A
01E5 FD                MOV     R5,A
01E6 120000      E     LCALL   _LCD_PrintU32Number
                                           ; SOURCE LINE # 477
01E9         ?C0086:
                                           ; SOURCE LINE # 479
01E9 120000      E     LCALL   Green_LED_Read
01EC EF                MOV     A,R7
01ED 6401              XRL     A,#01H
01EF 702E              JNZ     ?C0090
                                           ; SOURCE LINE # 480
01F1 7D08              MOV     R5,#08H
01F3 7F01              MOV     R7,#01H
01F5 120000      E     LCALL   _LCD_Position
                                           ; SOURCE LINE # 481
01F8 7BFF              MOV     R3,#0FFH
01FA 7A00        R     MOV     R2,#HIGH ?SC_57
01FC 7900        R     MOV     R1,#LOW ?SC_57
01FE 120000      E     LCALL   _LCD_PrintString
                                           ; SOURCE LINE # 482
0201 7BFF              MOV     R3,#0FFH
0203 7A00        R     MOV     R2,#HIGH ?SC_6
0205 7900        R     MOV     R1,#LOW ?SC_6
0207 120000      E     LCALL   _LCD_PrintString
                                           ; SOURCE LINE # 483
020A 7D0D              MOV     R5,#0DH
020C 7F01              MOV     R7,#01H
020E 120000      E     LCALL   _LCD_Position
C51 COMPILER V9.51   MAIN                                                                  04/25/2019 18:56:08 PAGE 37  

                                           ; SOURCE LINE # 484
0211 900000      R     MOV     DPTR,#Dtimer
0214 E0                MOVX    A,@DPTR
0215 FF                MOV     R7,A
0216 7E00              MOV     R6,#00H
0218 E4                CLR     A
0219 FC                MOV     R4,A
021A FD                MOV     R5,A
021B 120000      E     LCALL   _LCD_PrintU32Number
                                           ; SOURCE LINE # 485
021E 22                RET     
021F         ?C0090:
021F 120000      E     LCALL   Red_LED_Read
0222 EF                MOV     A,R7
0223 6401              XRL     A,#01H
0225 702E              JNZ     ?C0092
                                           ; SOURCE LINE # 486
0227 7D08              MOV     R5,#08H
0229 7F01              MOV     R7,#01H
022B 120000      E     LCALL   _LCD_Position
                                           ; SOURCE LINE # 487
022E 7BFF              MOV     R3,#0FFH
0230 7A00        R     MOV     R2,#HIGH ?SC_63
0232 7900        R     MOV     R1,#LOW ?SC_63
0234 120000      E     LCALL   _LCD_PrintString
                                           ; SOURCE LINE # 488
0237 7BFF              MOV     R3,#0FFH
0239 7A00        R     MOV     R2,#HIGH ?SC_6
023B 7900        R     MOV     R1,#LOW ?SC_6
023D 120000      E     LCALL   _LCD_PrintString
                                           ; SOURCE LINE # 489
0240 7D0D              MOV     R5,#0DH
0242 7F01              MOV     R7,#01H
0244 120000      E     LCALL   _LCD_Position
                                           ; SOURCE LINE # 490
0247 900000      R     MOV     DPTR,#Dtimer
024A E0                MOVX    A,@DPTR
024B FF                MOV     R7,A
024C 7E00              MOV     R6,#00H
024E E4                CLR     A
024F FC                MOV     R4,A
0250 FD                MOV     R5,A
0251 120000      E     LCALL   _LCD_PrintU32Number
                                           ; SOURCE LINE # 491
0254 22                RET     
0255         ?C0092:
0255 120000      E     LCALL   Amber_LED_Read
0258 EF                MOV     A,R7
0259 6401              XRL     A,#01H
025B 702D              JNZ     ?C0095
                                           ; SOURCE LINE # 492
025D 7D08              MOV     R5,#08H
025F 7F01              MOV     R7,#01H
0261 120000      E     LCALL   _LCD_Position
                                           ; SOURCE LINE # 493
0264 7BFF              MOV     R3,#0FFH
0266 7A00        R     MOV     R2,#HIGH ?SC_69
0268 7900        R     MOV     R1,#LOW ?SC_69
026A 120000      E     LCALL   _LCD_PrintString
                                           ; SOURCE LINE # 494
026D 7BFF              MOV     R3,#0FFH
026F 7A00        R     MOV     R2,#HIGH ?SC_6
C51 COMPILER V9.51   MAIN                                                                  04/25/2019 18:56:08 PAGE 38  

0271 7900        R     MOV     R1,#LOW ?SC_6
0273 120000      E     LCALL   _LCD_PrintString
                                           ; SOURCE LINE # 495
0276 7D0D              MOV     R5,#0DH
0278 7F01              MOV     R7,#01H
027A 120000      E     LCALL   _LCD_Position
                                           ; SOURCE LINE # 496
027D 900000      R     MOV     DPTR,#Dtimer
0280 E0                MOVX    A,@DPTR
0281 FF                MOV     R7,A
0282 7E00              MOV     R6,#00H
0284 E4                CLR     A
0285 FC                MOV     R4,A
0286 FD                MOV     R5,A
0287 120000      E     LCALL   _LCD_PrintU32Number
                                           ; SOURCE LINE # 497
                                           ; SOURCE LINE # 499
028A         ?C0095:
028A 22                RET     
             ; FUNCTION LCD_Print (END)



MODULE INFORMATION:   STATIC OVERLAYABLE
   CODE SIZE        =   2499    ----
   CONSTANT SIZE    =     75    ----
   XDATA SIZE       =     32    ----
   PDATA SIZE       =   ----    ----
   DATA SIZE        =   ----    ----
   IDATA SIZE       =   ----    ----
   BIT SIZE         =   ----    ----
   EDATA SIZE       =   ----    ----
   HDATA SIZE       =   ----    ----
   XDATA CONST SIZE =   ----    ----
   FAR CONST SIZE   =   ----    ----
END OF MODULE INFORMATION.


C51 COMPILATION COMPLETE.  0 WARNING(S),  0 ERROR(S)
